
stm32f4xx_drivers.elf:     file format elf32-littlearm

Sections:
Idx Name          Size      VMA       LMA       File off  Algn
  0 .isr_vector   00000188  08000000  08000000  00001000  2**0
                  CONTENTS, ALLOC, LOAD, READONLY, DATA
  1 .text         000024b8  08000190  08000190  00001190  2**4
                  CONTENTS, ALLOC, LOAD, READONLY, CODE
  2 .rodata       000000dc  08002648  08002648  00003648  2**2
                  CONTENTS, ALLOC, LOAD, READONLY, DATA
  3 .ARM.extab    00000000  08002724  08002724  00004090  2**0
                  CONTENTS, READONLY
  4 .ARM          00000008  08002724  08002724  00003724  2**2
                  CONTENTS, ALLOC, LOAD, READONLY, DATA
  5 .preinit_array 00000000  0800272c  0800272c  00004090  2**0
                  CONTENTS, ALLOC, LOAD, DATA
  6 .init_array   00000004  0800272c  0800272c  0000372c  2**2
                  CONTENTS, ALLOC, LOAD, READONLY, DATA
  7 .fini_array   00000004  08002730  08002730  00003730  2**2
                  CONTENTS, ALLOC, LOAD, READONLY, DATA
  8 .data         00000090  20000000  08002734  00004000  2**2
                  CONTENTS, ALLOC, LOAD, DATA
  9 .ccmram       00000000  10000000  10000000  00004090  2**0
                  CONTENTS
 10 .bss          000001b4  20000090  20000090  00004090  2**2
                  ALLOC
 11 ._user_heap_stack 00000604  20000244  20000244  00004090  2**0
                  ALLOC
 12 .ARM.attributes 0000002a  00000000  00000000  00004090  2**0
                  CONTENTS, READONLY
 13 .debug_info   000027b6  00000000  00000000  000040ba  2**0
                  CONTENTS, READONLY, DEBUGGING, OCTETS
 14 .debug_abbrev 00000aa9  00000000  00000000  00006870  2**0
                  CONTENTS, READONLY, DEBUGGING, OCTETS
 15 .debug_aranges 00000340  00000000  00000000  00007320  2**3
                  CONTENTS, READONLY, DEBUGGING, OCTETS
 16 .debug_rnglists 00000269  00000000  00000000  00007660  2**0
                  CONTENTS, READONLY, DEBUGGING, OCTETS
 17 .debug_macro  0000482b  00000000  00000000  000078c9  2**0
                  CONTENTS, READONLY, DEBUGGING, OCTETS
 18 .debug_line   000040e1  00000000  00000000  0000c0f4  2**0
                  CONTENTS, READONLY, DEBUGGING, OCTETS
 19 .debug_str    0000d625  00000000  00000000  000101d5  2**0
                  CONTENTS, READONLY, DEBUGGING, OCTETS
 20 .comment      00000043  00000000  00000000  0001d7fa  2**0
                  CONTENTS, READONLY
 21 .debug_frame  00001410  00000000  00000000  0001d840  2**2
                  CONTENTS, READONLY, DEBUGGING, OCTETS
 22 .debug_line_str 00000082  00000000  00000000  0001ec50  2**0
                  CONTENTS, READONLY, DEBUGGING, OCTETS

Disassembly of section .text:

08000190 <__do_global_dtors_aux>:
 8000190:	b510      	push	{r4, lr}
 8000192:	4c05      	ldr	r4, [pc, #20]	@ (80001a8 <__do_global_dtors_aux+0x18>)
 8000194:	7823      	ldrb	r3, [r4, #0]
 8000196:	b933      	cbnz	r3, 80001a6 <__do_global_dtors_aux+0x16>
 8000198:	4b04      	ldr	r3, [pc, #16]	@ (80001ac <__do_global_dtors_aux+0x1c>)
 800019a:	b113      	cbz	r3, 80001a2 <__do_global_dtors_aux+0x12>
 800019c:	4804      	ldr	r0, [pc, #16]	@ (80001b0 <__do_global_dtors_aux+0x20>)
 800019e:	f3af 8000 	nop.w
 80001a2:	2301      	movs	r3, #1
 80001a4:	7023      	strb	r3, [r4, #0]
 80001a6:	bd10      	pop	{r4, pc}
 80001a8:	20000090 	.word	0x20000090
 80001ac:	00000000 	.word	0x00000000
 80001b0:	08002630 	.word	0x08002630

080001b4 <frame_dummy>:
 80001b4:	b508      	push	{r3, lr}
 80001b6:	4b03      	ldr	r3, [pc, #12]	@ (80001c4 <frame_dummy+0x10>)
 80001b8:	b11b      	cbz	r3, 80001c2 <frame_dummy+0xe>
 80001ba:	4903      	ldr	r1, [pc, #12]	@ (80001c8 <frame_dummy+0x14>)
 80001bc:	4803      	ldr	r0, [pc, #12]	@ (80001cc <frame_dummy+0x18>)
 80001be:	f3af 8000 	nop.w
 80001c2:	bd08      	pop	{r3, pc}
 80001c4:	00000000 	.word	0x00000000
 80001c8:	20000094 	.word	0x20000094
 80001cc:	08002630 	.word	0x08002630

080001d0 <memchr>:
 80001d0:	f001 01ff 	and.w	r1, r1, #255	@ 0xff
 80001d4:	2a10      	cmp	r2, #16
 80001d6:	db2b      	blt.n	8000230 <memchr+0x60>
 80001d8:	f010 0f07 	tst.w	r0, #7
 80001dc:	d008      	beq.n	80001f0 <memchr+0x20>
 80001de:	f810 3b01 	ldrb.w	r3, [r0], #1
 80001e2:	3a01      	subs	r2, #1
 80001e4:	428b      	cmp	r3, r1
 80001e6:	d02d      	beq.n	8000244 <memchr+0x74>
 80001e8:	f010 0f07 	tst.w	r0, #7
 80001ec:	b342      	cbz	r2, 8000240 <memchr+0x70>
 80001ee:	d1f6      	bne.n	80001de <memchr+0xe>
 80001f0:	b4f0      	push	{r4, r5, r6, r7}
 80001f2:	ea41 2101 	orr.w	r1, r1, r1, lsl #8
 80001f6:	ea41 4101 	orr.w	r1, r1, r1, lsl #16
 80001fa:	f022 0407 	bic.w	r4, r2, #7
 80001fe:	f07f 0700 	mvns.w	r7, #0
 8000202:	2300      	movs	r3, #0
 8000204:	e8f0 5602 	ldrd	r5, r6, [r0], #8
 8000208:	3c08      	subs	r4, #8
 800020a:	ea85 0501 	eor.w	r5, r5, r1
 800020e:	ea86 0601 	eor.w	r6, r6, r1
 8000212:	fa85 f547 	uadd8	r5, r5, r7
 8000216:	faa3 f587 	sel	r5, r3, r7
 800021a:	fa86 f647 	uadd8	r6, r6, r7
 800021e:	faa5 f687 	sel	r6, r5, r7
 8000222:	b98e      	cbnz	r6, 8000248 <memchr+0x78>
 8000224:	d1ee      	bne.n	8000204 <memchr+0x34>
 8000226:	bcf0      	pop	{r4, r5, r6, r7}
 8000228:	f001 01ff 	and.w	r1, r1, #255	@ 0xff
 800022c:	f002 0207 	and.w	r2, r2, #7
 8000230:	b132      	cbz	r2, 8000240 <memchr+0x70>
 8000232:	f810 3b01 	ldrb.w	r3, [r0], #1
 8000236:	3a01      	subs	r2, #1
 8000238:	ea83 0301 	eor.w	r3, r3, r1
 800023c:	b113      	cbz	r3, 8000244 <memchr+0x74>
 800023e:	d1f8      	bne.n	8000232 <memchr+0x62>
 8000240:	2000      	movs	r0, #0
 8000242:	4770      	bx	lr
 8000244:	3801      	subs	r0, #1
 8000246:	4770      	bx	lr
 8000248:	2d00      	cmp	r5, #0
 800024a:	bf06      	itte	eq
 800024c:	4635      	moveq	r5, r6
 800024e:	3803      	subeq	r0, #3
 8000250:	3807      	subne	r0, #7
 8000252:	f015 0f01 	tst.w	r5, #1
 8000256:	d107      	bne.n	8000268 <memchr+0x98>
 8000258:	3001      	adds	r0, #1
 800025a:	f415 7f80 	tst.w	r5, #256	@ 0x100
 800025e:	bf02      	ittt	eq
 8000260:	3001      	addeq	r0, #1
 8000262:	f415 3fc0 	tsteq.w	r5, #98304	@ 0x18000
 8000266:	3001      	addeq	r0, #1
 8000268:	bcf0      	pop	{r4, r5, r6, r7}
 800026a:	3801      	subs	r0, #1
 800026c:	4770      	bx	lr
 800026e:	bf00      	nop

08000270 <init_systick_timer>:
#include "ds1307.h"

#define SYSTICK_TIM_CLK 160000000UL
//function to initialize the Systick timer
void init_systick_timer(uint32_t tick_hz)
{
 8000270:	b480      	push	{r7}
 8000272:	b087      	sub	sp, #28
 8000274:	af00      	add	r7, sp, #0
 8000276:	6078      	str	r0, [r7, #4]
	uint32_t *pSRVR = (uint32_t*)0xE000E014;
 8000278:	4b14      	ldr	r3, [pc, #80]	@ (80002cc <init_systick_timer+0x5c>)
 800027a:	617b      	str	r3, [r7, #20]
	uint32_t *pSCSR = (uint32_t*)0xE000E010;
 800027c:	4b14      	ldr	r3, [pc, #80]	@ (80002d0 <init_systick_timer+0x60>)
 800027e:	613b      	str	r3, [r7, #16]

    /* calculation of reload value */
    uint32_t count_value = (SYSTICK_TIM_CLK/tick_hz)-1; // do the calculation on book , can be understood
 8000280:	4a14      	ldr	r2, [pc, #80]	@ (80002d4 <init_systick_timer+0x64>)
 8000282:	687b      	ldr	r3, [r7, #4]
 8000284:	fbb2 f3f3 	udiv	r3, r2, r3
 8000288:	3b01      	subs	r3, #1
 800028a:	60fb      	str	r3, [r7, #12]

    //Clear the value of SVR
    *pSRVR &= ~(0x00FFFFFFFF);
 800028c:	697b      	ldr	r3, [r7, #20]
 800028e:	2200      	movs	r2, #0
 8000290:	601a      	str	r2, [r3, #0]

    //load the value in to SVR
    *pSRVR |= count_value;
 8000292:	697b      	ldr	r3, [r7, #20]
 8000294:	681a      	ldr	r2, [r3, #0]
 8000296:	68fb      	ldr	r3, [r7, #12]
 8000298:	431a      	orrs	r2, r3
 800029a:	697b      	ldr	r3, [r7, #20]
 800029c:	601a      	str	r2, [r3, #0]

    //do some settings
    *pSCSR |= ( 1 << 1); //Enables SysTick exception request:
 800029e:	693b      	ldr	r3, [r7, #16]
 80002a0:	681b      	ldr	r3, [r3, #0]
 80002a2:	f043 0202 	orr.w	r2, r3, #2
 80002a6:	693b      	ldr	r3, [r7, #16]
 80002a8:	601a      	str	r2, [r3, #0]
    *pSCSR |= ( 1 << 2);  //Indicates the clock source, processor clock source
 80002aa:	693b      	ldr	r3, [r7, #16]
 80002ac:	681b      	ldr	r3, [r3, #0]
 80002ae:	f043 0204 	orr.w	r2, r3, #4
 80002b2:	693b      	ldr	r3, [r7, #16]
 80002b4:	601a      	str	r2, [r3, #0]

    //enable the systick
    *pSCSR |= ( 1 << 0); //enables the counter
 80002b6:	693b      	ldr	r3, [r7, #16]
 80002b8:	681b      	ldr	r3, [r3, #0]
 80002ba:	f043 0201 	orr.w	r2, r3, #1
 80002be:	693b      	ldr	r3, [r7, #16]
 80002c0:	601a      	str	r2, [r3, #0]

}
 80002c2:	bf00      	nop
 80002c4:	371c      	adds	r7, #28
 80002c6:	46bd      	mov	sp, r7
 80002c8:	bc80      	pop	{r7}
 80002ca:	4770      	bx	lr
 80002cc:	e000e014 	.word	0xe000e014
 80002d0:	e000e010 	.word	0xe000e010
 80002d4:	09896800 	.word	0x09896800

080002d8 <get_day_of_week>:
char* get_day_of_week(uint8_t i)
{
 80002d8:	b4b0      	push	{r4, r5, r7}
 80002da:	b08b      	sub	sp, #44	@ 0x2c
 80002dc:	af00      	add	r7, sp, #0
 80002de:	4603      	mov	r3, r0
 80002e0:	71fb      	strb	r3, [r7, #7]
	char* days[] = { "SUN","MON","TUES","WED","THUR","FRI","SAT"};
 80002e2:	4b0b      	ldr	r3, [pc, #44]	@ (8000310 <get_day_of_week+0x38>)
 80002e4:	f107 040c 	add.w	r4, r7, #12
 80002e8:	461d      	mov	r5, r3
 80002ea:	cd0f      	ldmia	r5!, {r0, r1, r2, r3}
 80002ec:	c40f      	stmia	r4!, {r0, r1, r2, r3}
 80002ee:	e895 0007 	ldmia.w	r5, {r0, r1, r2}
 80002f2:	e884 0007 	stmia.w	r4, {r0, r1, r2}

	return days[i-1];
 80002f6:	79fb      	ldrb	r3, [r7, #7]
 80002f8:	3b01      	subs	r3, #1
 80002fa:	009b      	lsls	r3, r3, #2
 80002fc:	3328      	adds	r3, #40	@ 0x28
 80002fe:	443b      	add	r3, r7
 8000300:	f853 3c1c 	ldr.w	r3, [r3, #-28]
}
 8000304:	4618      	mov	r0, r3
 8000306:	372c      	adds	r7, #44	@ 0x2c
 8000308:	46bd      	mov	sp, r7
 800030a:	bcb0      	pop	{r4, r5, r7}
 800030c:	4770      	bx	lr
 800030e:	bf00      	nop
 8000310:	0800266c 	.word	0x0800266c

08000314 <number_to_string>:

void number_to_string(uint8_t num , char* buf)
{
 8000314:	b480      	push	{r7}
 8000316:	b083      	sub	sp, #12
 8000318:	af00      	add	r7, sp, #0
 800031a:	4603      	mov	r3, r0
 800031c:	6039      	str	r1, [r7, #0]
 800031e:	71fb      	strb	r3, [r7, #7]

	if(num < 10){
 8000320:	79fb      	ldrb	r3, [r7, #7]
 8000322:	2b09      	cmp	r3, #9
 8000324:	d809      	bhi.n	800033a <number_to_string+0x26>
		buf[0] = '0';
 8000326:	683b      	ldr	r3, [r7, #0]
 8000328:	2230      	movs	r2, #48	@ 0x30
 800032a:	701a      	strb	r2, [r3, #0]
		buf[1] = num+48;
 800032c:	683b      	ldr	r3, [r7, #0]
 800032e:	3301      	adds	r3, #1
 8000330:	79fa      	ldrb	r2, [r7, #7]
 8000332:	3230      	adds	r2, #48	@ 0x30
 8000334:	b2d2      	uxtb	r2, r2
 8000336:	701a      	strb	r2, [r3, #0]
	}else if(num >= 10 && num < 99)
	{
		buf[0] = (num/10) + 48; // this could be buf[3]
		buf[1]= (num % 10) + 48; // this could be buf[6] // what we send as parameter depends on it.
	}
}
 8000338:	e01f      	b.n	800037a <number_to_string+0x66>
	}else if(num >= 10 && num < 99)
 800033a:	79fb      	ldrb	r3, [r7, #7]
 800033c:	2b09      	cmp	r3, #9
 800033e:	d91c      	bls.n	800037a <number_to_string+0x66>
 8000340:	79fb      	ldrb	r3, [r7, #7]
 8000342:	2b62      	cmp	r3, #98	@ 0x62
 8000344:	d819      	bhi.n	800037a <number_to_string+0x66>
		buf[0] = (num/10) + 48; // this could be buf[3]
 8000346:	79fb      	ldrb	r3, [r7, #7]
 8000348:	4a0e      	ldr	r2, [pc, #56]	@ (8000384 <number_to_string+0x70>)
 800034a:	fba2 2303 	umull	r2, r3, r2, r3
 800034e:	08db      	lsrs	r3, r3, #3
 8000350:	b2db      	uxtb	r3, r3
 8000352:	3330      	adds	r3, #48	@ 0x30
 8000354:	b2da      	uxtb	r2, r3
 8000356:	683b      	ldr	r3, [r7, #0]
 8000358:	701a      	strb	r2, [r3, #0]
		buf[1]= (num % 10) + 48; // this could be buf[6] // what we send as parameter depends on it.
 800035a:	79fa      	ldrb	r2, [r7, #7]
 800035c:	4b09      	ldr	r3, [pc, #36]	@ (8000384 <number_to_string+0x70>)
 800035e:	fba3 1302 	umull	r1, r3, r3, r2
 8000362:	08d9      	lsrs	r1, r3, #3
 8000364:	460b      	mov	r3, r1
 8000366:	009b      	lsls	r3, r3, #2
 8000368:	440b      	add	r3, r1
 800036a:	005b      	lsls	r3, r3, #1
 800036c:	1ad3      	subs	r3, r2, r3
 800036e:	b2da      	uxtb	r2, r3
 8000370:	683b      	ldr	r3, [r7, #0]
 8000372:	3301      	adds	r3, #1
 8000374:	3230      	adds	r2, #48	@ 0x30
 8000376:	b2d2      	uxtb	r2, r2
 8000378:	701a      	strb	r2, [r3, #0]
}
 800037a:	bf00      	nop
 800037c:	370c      	adds	r7, #12
 800037e:	46bd      	mov	sp, r7
 8000380:	bc80      	pop	{r7}
 8000382:	4770      	bx	lr
 8000384:	cccccccd 	.word	0xcccccccd

08000388 <time_to_string>:


//hh:mm:ss
char* time_to_string(RTC_Time_t *rtc_time)
{
 8000388:	b580      	push	{r7, lr}
 800038a:	b082      	sub	sp, #8
 800038c:	af00      	add	r7, sp, #0
 800038e:	6078      	str	r0, [r7, #4]
	static char buf[9];

	buf[2]= ':';
 8000390:	4b0f      	ldr	r3, [pc, #60]	@ (80003d0 <time_to_string+0x48>)
 8000392:	223a      	movs	r2, #58	@ 0x3a
 8000394:	709a      	strb	r2, [r3, #2]
	buf[5]= ':';
 8000396:	4b0e      	ldr	r3, [pc, #56]	@ (80003d0 <time_to_string+0x48>)
 8000398:	223a      	movs	r2, #58	@ 0x3a
 800039a:	715a      	strb	r2, [r3, #5]

	number_to_string(rtc_time->hours,buf);
 800039c:	687b      	ldr	r3, [r7, #4]
 800039e:	789b      	ldrb	r3, [r3, #2]
 80003a0:	490b      	ldr	r1, [pc, #44]	@ (80003d0 <time_to_string+0x48>)
 80003a2:	4618      	mov	r0, r3
 80003a4:	f7ff ffb6 	bl	8000314 <number_to_string>
	number_to_string(rtc_time->minutes,&buf[3]);
 80003a8:	687b      	ldr	r3, [r7, #4]
 80003aa:	785b      	ldrb	r3, [r3, #1]
 80003ac:	4909      	ldr	r1, [pc, #36]	@ (80003d4 <time_to_string+0x4c>)
 80003ae:	4618      	mov	r0, r3
 80003b0:	f7ff ffb0 	bl	8000314 <number_to_string>
	number_to_string(rtc_time->seconds,&buf[6]);
 80003b4:	687b      	ldr	r3, [r7, #4]
 80003b6:	781b      	ldrb	r3, [r3, #0]
 80003b8:	4907      	ldr	r1, [pc, #28]	@ (80003d8 <time_to_string+0x50>)
 80003ba:	4618      	mov	r0, r3
 80003bc:	f7ff ffaa 	bl	8000314 <number_to_string>

	buf[8] = '\0';
 80003c0:	4b03      	ldr	r3, [pc, #12]	@ (80003d0 <time_to_string+0x48>)
 80003c2:	2200      	movs	r2, #0
 80003c4:	721a      	strb	r2, [r3, #8]

	return buf;
 80003c6:	4b02      	ldr	r3, [pc, #8]	@ (80003d0 <time_to_string+0x48>)

}
 80003c8:	4618      	mov	r0, r3
 80003ca:	3708      	adds	r7, #8
 80003cc:	46bd      	mov	sp, r7
 80003ce:	bd80      	pop	{r7, pc}
 80003d0:	200000ac 	.word	0x200000ac
 80003d4:	200000af 	.word	0x200000af
 80003d8:	200000b2 	.word	0x200000b2

080003dc <date_to_string>:

//dd/mm/yy
char* date_to_string(RTC_Date_t *rtc_date)
{
 80003dc:	b580      	push	{r7, lr}
 80003de:	b082      	sub	sp, #8
 80003e0:	af00      	add	r7, sp, #0
 80003e2:	6078      	str	r0, [r7, #4]
	static char buf[9];

	buf[2]= '/';
 80003e4:	4b0f      	ldr	r3, [pc, #60]	@ (8000424 <date_to_string+0x48>)
 80003e6:	222f      	movs	r2, #47	@ 0x2f
 80003e8:	709a      	strb	r2, [r3, #2]
	buf[5]= '/';
 80003ea:	4b0e      	ldr	r3, [pc, #56]	@ (8000424 <date_to_string+0x48>)
 80003ec:	222f      	movs	r2, #47	@ 0x2f
 80003ee:	715a      	strb	r2, [r3, #5]

	number_to_string(rtc_date->date,buf);
 80003f0:	687b      	ldr	r3, [r7, #4]
 80003f2:	781b      	ldrb	r3, [r3, #0]
 80003f4:	490b      	ldr	r1, [pc, #44]	@ (8000424 <date_to_string+0x48>)
 80003f6:	4618      	mov	r0, r3
 80003f8:	f7ff ff8c 	bl	8000314 <number_to_string>
	number_to_string(rtc_date->month,&buf[3]);
 80003fc:	687b      	ldr	r3, [r7, #4]
 80003fe:	785b      	ldrb	r3, [r3, #1]
 8000400:	4909      	ldr	r1, [pc, #36]	@ (8000428 <date_to_string+0x4c>)
 8000402:	4618      	mov	r0, r3
 8000404:	f7ff ff86 	bl	8000314 <number_to_string>
	number_to_string(rtc_date->year,&buf[6]);
 8000408:	687b      	ldr	r3, [r7, #4]
 800040a:	789b      	ldrb	r3, [r3, #2]
 800040c:	4907      	ldr	r1, [pc, #28]	@ (800042c <date_to_string+0x50>)
 800040e:	4618      	mov	r0, r3
 8000410:	f7ff ff80 	bl	8000314 <number_to_string>

	buf[8]= '\0';
 8000414:	4b03      	ldr	r3, [pc, #12]	@ (8000424 <date_to_string+0x48>)
 8000416:	2200      	movs	r2, #0
 8000418:	721a      	strb	r2, [r3, #8]

	return buf;
 800041a:	4b02      	ldr	r3, [pc, #8]	@ (8000424 <date_to_string+0x48>)

}
 800041c:	4618      	mov	r0, r3
 800041e:	3708      	adds	r7, #8
 8000420:	46bd      	mov	sp, r7
 8000422:	bd80      	pop	{r7, pc}
 8000424:	200000b8 	.word	0x200000b8
 8000428:	200000bb 	.word	0x200000bb
 800042c:	200000be 	.word	0x200000be

08000430 <main>:

int main()
{
 8000430:	b590      	push	{r4, r7, lr}
 8000432:	b085      	sub	sp, #20
 8000434:	af00      	add	r7, sp, #0
	RTC_Time_t current_time;
	RTC_Date_t current_date;


	printf("RTC test\n");
 8000436:	4831      	ldr	r0, [pc, #196]	@ (80004fc <main+0xcc>)
 8000438:	f001 faa0 	bl	800197c <puts>
	if(ds1307_init())
 800043c:	f000 f9a6 	bl	800078c <ds1307_init>
 8000440:	4603      	mov	r3, r0
 8000442:	2b00      	cmp	r3, #0
 8000444:	d004      	beq.n	8000450 <main+0x20>
	{
		//return 0 , meaning init has not happened succesfully  .. in our case ch bit is set
		printf("RTC init failed\n");
 8000446:	482e      	ldr	r0, [pc, #184]	@ (8000500 <main+0xd0>)
 8000448:	f001 fa98 	bl	800197c <puts>
		while(1);
 800044c:	bf00      	nop
 800044e:	e7fd      	b.n	800044c <main+0x1c>

 //1 interrupt for every 1 sec

	//1. program current time and date info

	current_date.day=FRIDAY;
 8000450:	2306      	movs	r3, #6
 8000452:	71fb      	strb	r3, [r7, #7]
	current_date.date=5;
 8000454:	2305      	movs	r3, #5
 8000456:	713b      	strb	r3, [r7, #4]
	current_date.month=3;
 8000458:	2303      	movs	r3, #3
 800045a:	717b      	strb	r3, [r7, #5]
	current_date.year=26;
 800045c:	231a      	movs	r3, #26
 800045e:	71bb      	strb	r3, [r7, #6]

	current_time.hours=12;
 8000460:	230c      	movs	r3, #12
 8000462:	72bb      	strb	r3, [r7, #10]
	current_time.minutes=36;
 8000464:	2324      	movs	r3, #36	@ 0x24
 8000466:	727b      	strb	r3, [r7, #9]
	current_time.seconds=45;
 8000468:	232d      	movs	r3, #45	@ 0x2d
 800046a:	723b      	strb	r3, [r7, #8]
	current_time.time_format=TIME_FORMAT_12HRS_AM;
 800046c:	2300      	movs	r3, #0
 800046e:	72fb      	strb	r3, [r7, #11]

	init_systick_timer(1);
 8000470:	2001      	movs	r0, #1
 8000472:	f7ff fefd 	bl	8000270 <init_systick_timer>

	ds1307_set_current_date(&current_date);
 8000476:	1d3b      	adds	r3, r7, #4
 8000478:	4618      	mov	r0, r3
 800047a:	f000 fa38 	bl	80008ee <ds1307_set_current_date>
	ds1307_set_current_time(&current_time);
 800047e:	f107 0308 	add.w	r3, r7, #8
 8000482:	4618      	mov	r0, r3
 8000484:	f000 f9a2 	bl	80007cc <ds1307_set_current_time>



	ds1307_get_current_date(&current_date);
 8000488:	1d3b      	adds	r3, r7, #4
 800048a:	4618      	mov	r0, r3
 800048c:	f000 fa5f 	bl	800094e <ds1307_get_current_date>
	ds1307_get_current_time(&current_time);
 8000490:	f107 0308 	add.w	r3, r7, #8
 8000494:	4618      	mov	r0, r3
 8000496:	f000 f9e4 	bl	8000862 <ds1307_get_current_time>

	char *am_pm;
	if(current_time.time_format != TIME_FORMAT_24HRS)
 800049a:	7afb      	ldrb	r3, [r7, #11]
 800049c:	2b02      	cmp	r3, #2
 800049e:	d012      	beq.n	80004c6 <main+0x96>
	{
		//print the time using AM and PM
		am_pm = (current_time.time_format) ? "PM" : "AM";
 80004a0:	7afb      	ldrb	r3, [r7, #11]
 80004a2:	2b00      	cmp	r3, #0
 80004a4:	d001      	beq.n	80004aa <main+0x7a>
 80004a6:	4b17      	ldr	r3, [pc, #92]	@ (8000504 <main+0xd4>)
 80004a8:	e000      	b.n	80004ac <main+0x7c>
 80004aa:	4b17      	ldr	r3, [pc, #92]	@ (8000508 <main+0xd8>)
 80004ac:	60fb      	str	r3, [r7, #12]
		printf("current time = %s %s\n", time_to_string(&current_time),am_pm); // return format : hh:mm:ss  AM/PM
 80004ae:	f107 0308 	add.w	r3, r7, #8
 80004b2:	4618      	mov	r0, r3
 80004b4:	f7ff ff68 	bl	8000388 <time_to_string>
 80004b8:	4603      	mov	r3, r0
 80004ba:	68fa      	ldr	r2, [r7, #12]
 80004bc:	4619      	mov	r1, r3
 80004be:	4813      	ldr	r0, [pc, #76]	@ (800050c <main+0xdc>)
 80004c0:	f001 f9f4 	bl	80018ac <iprintf>
 80004c4:	e009      	b.n	80004da <main+0xaa>

	}
	else
	{
		printf("current time = %s\n", time_to_string(&current_time));
 80004c6:	f107 0308 	add.w	r3, r7, #8
 80004ca:	4618      	mov	r0, r3
 80004cc:	f7ff ff5c 	bl	8000388 <time_to_string>
 80004d0:	4603      	mov	r3, r0
 80004d2:	4619      	mov	r1, r3
 80004d4:	480e      	ldr	r0, [pc, #56]	@ (8000510 <main+0xe0>)
 80004d6:	f001 f9e9 	bl	80018ac <iprintf>
	}

	printf("Current date = %s <%s>\n",date_to_string(&current_date),get_day_of_week(current_date.day));
 80004da:	1d3b      	adds	r3, r7, #4
 80004dc:	4618      	mov	r0, r3
 80004de:	f7ff ff7d 	bl	80003dc <date_to_string>
 80004e2:	4604      	mov	r4, r0
 80004e4:	79fb      	ldrb	r3, [r7, #7]
 80004e6:	4618      	mov	r0, r3
 80004e8:	f7ff fef6 	bl	80002d8 <get_day_of_week>
 80004ec:	4603      	mov	r3, r0
 80004ee:	461a      	mov	r2, r3
 80004f0:	4621      	mov	r1, r4
 80004f2:	4808      	ldr	r0, [pc, #32]	@ (8000514 <main+0xe4>)
 80004f4:	f001 f9da 	bl	80018ac <iprintf>

	while(1);
 80004f8:	bf00      	nop
 80004fa:	e7fd      	b.n	80004f8 <main+0xc8>
 80004fc:	08002688 	.word	0x08002688
 8000500:	08002694 	.word	0x08002694
 8000504:	080026a4 	.word	0x080026a4
 8000508:	080026a8 	.word	0x080026a8
 800050c:	080026ac 	.word	0x080026ac
 8000510:	080026c4 	.word	0x080026c4
 8000514:	080026d8 	.word	0x080026d8

08000518 <SysTick_Handler>:
	return 0;
}

void SysTick_Handler(void)
{
 8000518:	b590      	push	{r4, r7, lr}
 800051a:	b085      	sub	sp, #20
 800051c:	af00      	add	r7, sp, #0
	RTC_Time_t current_time;
	RTC_Date_t current_date;


	ds1307_get_current_time(&current_time);
 800051e:	f107 0308 	add.w	r3, r7, #8
 8000522:	4618      	mov	r0, r3
 8000524:	f000 f99d 	bl	8000862 <ds1307_get_current_time>

	char *am_pm;
	if(current_time.time_format != TIME_FORMAT_24HRS)
 8000528:	7afb      	ldrb	r3, [r7, #11]
 800052a:	2b02      	cmp	r3, #2
 800052c:	d012      	beq.n	8000554 <SysTick_Handler+0x3c>
	{
		//print the time using AM and PM
		am_pm = (current_time.time_format) ? "PM" : "AM";
 800052e:	7afb      	ldrb	r3, [r7, #11]
 8000530:	2b00      	cmp	r3, #0
 8000532:	d001      	beq.n	8000538 <SysTick_Handler+0x20>
 8000534:	4b18      	ldr	r3, [pc, #96]	@ (8000598 <SysTick_Handler+0x80>)
 8000536:	e000      	b.n	800053a <SysTick_Handler+0x22>
 8000538:	4b18      	ldr	r3, [pc, #96]	@ (800059c <SysTick_Handler+0x84>)
 800053a:	60fb      	str	r3, [r7, #12]
		printf("current time = %s %s\n", time_to_string(&current_time),am_pm); // return format : hh:mm:ss  AM/PM
 800053c:	f107 0308 	add.w	r3, r7, #8
 8000540:	4618      	mov	r0, r3
 8000542:	f7ff ff21 	bl	8000388 <time_to_string>
 8000546:	4603      	mov	r3, r0
 8000548:	68fa      	ldr	r2, [r7, #12]
 800054a:	4619      	mov	r1, r3
 800054c:	4814      	ldr	r0, [pc, #80]	@ (80005a0 <SysTick_Handler+0x88>)
 800054e:	f001 f9ad 	bl	80018ac <iprintf>
 8000552:	e009      	b.n	8000568 <SysTick_Handler+0x50>

	}
	else
	{
		printf("current time = %s\n", time_to_string(&current_time));
 8000554:	f107 0308 	add.w	r3, r7, #8
 8000558:	4618      	mov	r0, r3
 800055a:	f7ff ff15 	bl	8000388 <time_to_string>
 800055e:	4603      	mov	r3, r0
 8000560:	4619      	mov	r1, r3
 8000562:	4810      	ldr	r0, [pc, #64]	@ (80005a4 <SysTick_Handler+0x8c>)
 8000564:	f001 f9a2 	bl	80018ac <iprintf>

	}
	ds1307_get_current_date(&current_date);
 8000568:	1d3b      	adds	r3, r7, #4
 800056a:	4618      	mov	r0, r3
 800056c:	f000 f9ef 	bl	800094e <ds1307_get_current_date>
	printf("Current date = %s <%s>\n",date_to_string(&current_date),get_day_of_week(current_date.day));
 8000570:	1d3b      	adds	r3, r7, #4
 8000572:	4618      	mov	r0, r3
 8000574:	f7ff ff32 	bl	80003dc <date_to_string>
 8000578:	4604      	mov	r4, r0
 800057a:	79fb      	ldrb	r3, [r7, #7]
 800057c:	4618      	mov	r0, r3
 800057e:	f7ff feab 	bl	80002d8 <get_day_of_week>
 8000582:	4603      	mov	r3, r0
 8000584:	461a      	mov	r2, r3
 8000586:	4621      	mov	r1, r4
 8000588:	4807      	ldr	r0, [pc, #28]	@ (80005a8 <SysTick_Handler+0x90>)
 800058a:	f001 f98f 	bl	80018ac <iprintf>
}
 800058e:	bf00      	nop
 8000590:	3714      	adds	r7, #20
 8000592:	46bd      	mov	sp, r7
 8000594:	bd90      	pop	{r4, r7, pc}
 8000596:	bf00      	nop
 8000598:	080026a4 	.word	0x080026a4
 800059c:	080026a8 	.word	0x080026a8
 80005a0:	080026ac 	.word	0x080026ac
 80005a4:	080026c4 	.word	0x080026c4
 80005a8:	080026d8 	.word	0x080026d8

080005ac <ITM_SendChar>:
/* ITM register addresses */
#define ITM_STIMULUS_PORT0   	*((volatile uint32_t*) 0xE0000000 )
#define ITM_TRACE_EN          	*((volatile uint32_t*) 0xE0000E00 )

void ITM_SendChar(uint8_t ch)
{
 80005ac:	b480      	push	{r7}
 80005ae:	b083      	sub	sp, #12
 80005b0:	af00      	add	r7, sp, #0
 80005b2:	4603      	mov	r3, r0
 80005b4:	71fb      	strb	r3, [r7, #7]

	//Enable TRCENA
	DEMCR |= ( 1 << 24);
 80005b6:	4b0e      	ldr	r3, [pc, #56]	@ (80005f0 <ITM_SendChar+0x44>)
 80005b8:	681b      	ldr	r3, [r3, #0]
 80005ba:	4a0d      	ldr	r2, [pc, #52]	@ (80005f0 <ITM_SendChar+0x44>)
 80005bc:	f043 7380 	orr.w	r3, r3, #16777216	@ 0x1000000
 80005c0:	6013      	str	r3, [r2, #0]

	//enable stimulus port 0
	ITM_TRACE_EN |= ( 1 << 0);
 80005c2:	4b0c      	ldr	r3, [pc, #48]	@ (80005f4 <ITM_SendChar+0x48>)
 80005c4:	681b      	ldr	r3, [r3, #0]
 80005c6:	4a0b      	ldr	r2, [pc, #44]	@ (80005f4 <ITM_SendChar+0x48>)
 80005c8:	f043 0301 	orr.w	r3, r3, #1
 80005cc:	6013      	str	r3, [r2, #0]

	// read FIFO status in bit [0]:
	while(!(ITM_STIMULUS_PORT0 & 1));
 80005ce:	bf00      	nop
 80005d0:	f04f 4360 	mov.w	r3, #3758096384	@ 0xe0000000
 80005d4:	681b      	ldr	r3, [r3, #0]
 80005d6:	f003 0301 	and.w	r3, r3, #1
 80005da:	2b00      	cmp	r3, #0
 80005dc:	d0f8      	beq.n	80005d0 <ITM_SendChar+0x24>

	//Write to ITM stimulus port0
	ITM_STIMULUS_PORT0 = ch;
 80005de:	f04f 4260 	mov.w	r2, #3758096384	@ 0xe0000000
 80005e2:	79fb      	ldrb	r3, [r7, #7]
 80005e4:	6013      	str	r3, [r2, #0]
}
 80005e6:	bf00      	nop
 80005e8:	370c      	adds	r7, #12
 80005ea:	46bd      	mov	sp, r7
 80005ec:	bc80      	pop	{r7}
 80005ee:	4770      	bx	lr
 80005f0:	e000edfc 	.word	0xe000edfc
 80005f4:	e0000e00 	.word	0xe0000e00

080005f8 <_read>:
  _kill(status, -1);
  while (1) {}    /* Make sure we hang here */
}

__attribute__((weak)) int _read(int file, char *ptr, int len)
{
 80005f8:	b580      	push	{r7, lr}
 80005fa:	b086      	sub	sp, #24
 80005fc:	af00      	add	r7, sp, #0
 80005fe:	60f8      	str	r0, [r7, #12]
 8000600:	60b9      	str	r1, [r7, #8]
 8000602:	607a      	str	r2, [r7, #4]
  (void)file;
  int DataIdx;

  for (DataIdx = 0; DataIdx < len; DataIdx++)
 8000604:	2300      	movs	r3, #0
 8000606:	617b      	str	r3, [r7, #20]
 8000608:	e00a      	b.n	8000620 <_read+0x28>
  {
    *ptr++ = __io_getchar();
 800060a:	f3af 8000 	nop.w
 800060e:	4601      	mov	r1, r0
 8000610:	68bb      	ldr	r3, [r7, #8]
 8000612:	1c5a      	adds	r2, r3, #1
 8000614:	60ba      	str	r2, [r7, #8]
 8000616:	b2ca      	uxtb	r2, r1
 8000618:	701a      	strb	r2, [r3, #0]
  for (DataIdx = 0; DataIdx < len; DataIdx++)
 800061a:	697b      	ldr	r3, [r7, #20]
 800061c:	3301      	adds	r3, #1
 800061e:	617b      	str	r3, [r7, #20]
 8000620:	697a      	ldr	r2, [r7, #20]
 8000622:	687b      	ldr	r3, [r7, #4]
 8000624:	429a      	cmp	r2, r3
 8000626:	dbf0      	blt.n	800060a <_read+0x12>
  }

  return len;
 8000628:	687b      	ldr	r3, [r7, #4]
}
 800062a:	4618      	mov	r0, r3
 800062c:	3718      	adds	r7, #24
 800062e:	46bd      	mov	sp, r7
 8000630:	bd80      	pop	{r7, pc}

08000632 <_write>:

__attribute__((weak)) int _write(int file, char *ptr, int len)
{
 8000632:	b580      	push	{r7, lr}
 8000634:	b086      	sub	sp, #24
 8000636:	af00      	add	r7, sp, #0
 8000638:	60f8      	str	r0, [r7, #12]
 800063a:	60b9      	str	r1, [r7, #8]
 800063c:	607a      	str	r2, [r7, #4]
  (void)file;
  int DataIdx;

  for (DataIdx = 0; DataIdx < len; DataIdx++)
 800063e:	2300      	movs	r3, #0
 8000640:	617b      	str	r3, [r7, #20]
 8000642:	e009      	b.n	8000658 <_write+0x26>
  {
   // __io_putchar(*ptr++);
	  ITM_SendChar(*ptr++);
 8000644:	68bb      	ldr	r3, [r7, #8]
 8000646:	1c5a      	adds	r2, r3, #1
 8000648:	60ba      	str	r2, [r7, #8]
 800064a:	781b      	ldrb	r3, [r3, #0]
 800064c:	4618      	mov	r0, r3
 800064e:	f7ff ffad 	bl	80005ac <ITM_SendChar>
  for (DataIdx = 0; DataIdx < len; DataIdx++)
 8000652:	697b      	ldr	r3, [r7, #20]
 8000654:	3301      	adds	r3, #1
 8000656:	617b      	str	r3, [r7, #20]
 8000658:	697a      	ldr	r2, [r7, #20]
 800065a:	687b      	ldr	r3, [r7, #4]
 800065c:	429a      	cmp	r2, r3
 800065e:	dbf1      	blt.n	8000644 <_write+0x12>

  }
  return len;
 8000660:	687b      	ldr	r3, [r7, #4]
}
 8000662:	4618      	mov	r0, r3
 8000664:	3718      	adds	r7, #24
 8000666:	46bd      	mov	sp, r7
 8000668:	bd80      	pop	{r7, pc}

0800066a <_close>:

int _close(int file)
{
 800066a:	b480      	push	{r7}
 800066c:	b083      	sub	sp, #12
 800066e:	af00      	add	r7, sp, #0
 8000670:	6078      	str	r0, [r7, #4]
  (void)file;
  return -1;
 8000672:	f04f 33ff 	mov.w	r3, #4294967295	@ 0xffffffff
}
 8000676:	4618      	mov	r0, r3
 8000678:	370c      	adds	r7, #12
 800067a:	46bd      	mov	sp, r7
 800067c:	bc80      	pop	{r7}
 800067e:	4770      	bx	lr

08000680 <_fstat>:


int _fstat(int file, struct stat *st)
{
 8000680:	b480      	push	{r7}
 8000682:	b083      	sub	sp, #12
 8000684:	af00      	add	r7, sp, #0
 8000686:	6078      	str	r0, [r7, #4]
 8000688:	6039      	str	r1, [r7, #0]
  (void)file;
  st->st_mode = S_IFCHR;
 800068a:	683b      	ldr	r3, [r7, #0]
 800068c:	f44f 5200 	mov.w	r2, #8192	@ 0x2000
 8000690:	605a      	str	r2, [r3, #4]
  return 0;
 8000692:	2300      	movs	r3, #0
}
 8000694:	4618      	mov	r0, r3
 8000696:	370c      	adds	r7, #12
 8000698:	46bd      	mov	sp, r7
 800069a:	bc80      	pop	{r7}
 800069c:	4770      	bx	lr

0800069e <_isatty>:

int _isatty(int file)
{
 800069e:	b480      	push	{r7}
 80006a0:	b083      	sub	sp, #12
 80006a2:	af00      	add	r7, sp, #0
 80006a4:	6078      	str	r0, [r7, #4]
  (void)file;
  return 1;
 80006a6:	2301      	movs	r3, #1
}
 80006a8:	4618      	mov	r0, r3
 80006aa:	370c      	adds	r7, #12
 80006ac:	46bd      	mov	sp, r7
 80006ae:	bc80      	pop	{r7}
 80006b0:	4770      	bx	lr

080006b2 <_lseek>:

int _lseek(int file, int ptr, int dir)
{
 80006b2:	b480      	push	{r7}
 80006b4:	b085      	sub	sp, #20
 80006b6:	af00      	add	r7, sp, #0
 80006b8:	60f8      	str	r0, [r7, #12]
 80006ba:	60b9      	str	r1, [r7, #8]
 80006bc:	607a      	str	r2, [r7, #4]
  (void)file;
  (void)ptr;
  (void)dir;
  return 0;
 80006be:	2300      	movs	r3, #0
}
 80006c0:	4618      	mov	r0, r3
 80006c2:	3714      	adds	r7, #20
 80006c4:	46bd      	mov	sp, r7
 80006c6:	bc80      	pop	{r7}
 80006c8:	4770      	bx	lr
	...

080006cc <_sbrk>:
 *
 * @param incr Memory size
 * @return Pointer to allocated memory
 */
void *_sbrk(ptrdiff_t incr)
{
 80006cc:	b580      	push	{r7, lr}
 80006ce:	b086      	sub	sp, #24
 80006d0:	af00      	add	r7, sp, #0
 80006d2:	6078      	str	r0, [r7, #4]
  extern uint8_t _end; /* Symbol defined in the linker script */
  extern uint8_t _estack; /* Symbol defined in the linker script */
  extern uint32_t _Min_Stack_Size; /* Symbol defined in the linker script */
  const uint32_t stack_limit = (uint32_t)&_estack - (uint32_t)&_Min_Stack_Size;
 80006d4:	4a14      	ldr	r2, [pc, #80]	@ (8000728 <_sbrk+0x5c>)
 80006d6:	4b15      	ldr	r3, [pc, #84]	@ (800072c <_sbrk+0x60>)
 80006d8:	1ad3      	subs	r3, r2, r3
 80006da:	617b      	str	r3, [r7, #20]
  const uint8_t *max_heap = (uint8_t *)stack_limit;
 80006dc:	697b      	ldr	r3, [r7, #20]
 80006de:	613b      	str	r3, [r7, #16]
  uint8_t *prev_heap_end;

  /* Initialize heap end at first call */
  if (NULL == __sbrk_heap_end)
 80006e0:	4b13      	ldr	r3, [pc, #76]	@ (8000730 <_sbrk+0x64>)
 80006e2:	681b      	ldr	r3, [r3, #0]
 80006e4:	2b00      	cmp	r3, #0
 80006e6:	d102      	bne.n	80006ee <_sbrk+0x22>
  {
    __sbrk_heap_end = &_end;
 80006e8:	4b11      	ldr	r3, [pc, #68]	@ (8000730 <_sbrk+0x64>)
 80006ea:	4a12      	ldr	r2, [pc, #72]	@ (8000734 <_sbrk+0x68>)
 80006ec:	601a      	str	r2, [r3, #0]
  }

  /* Protect heap from growing into the reserved MSP stack */
  if (__sbrk_heap_end + incr > max_heap)
 80006ee:	4b10      	ldr	r3, [pc, #64]	@ (8000730 <_sbrk+0x64>)
 80006f0:	681a      	ldr	r2, [r3, #0]
 80006f2:	687b      	ldr	r3, [r7, #4]
 80006f4:	4413      	add	r3, r2
 80006f6:	693a      	ldr	r2, [r7, #16]
 80006f8:	429a      	cmp	r2, r3
 80006fa:	d207      	bcs.n	800070c <_sbrk+0x40>
  {
    errno = ENOMEM;
 80006fc:	f001 f94e 	bl	800199c <__errno>
 8000700:	4603      	mov	r3, r0
 8000702:	220c      	movs	r2, #12
 8000704:	601a      	str	r2, [r3, #0]
    return (void *)-1;
 8000706:	f04f 33ff 	mov.w	r3, #4294967295	@ 0xffffffff
 800070a:	e009      	b.n	8000720 <_sbrk+0x54>
  }

  prev_heap_end = __sbrk_heap_end;
 800070c:	4b08      	ldr	r3, [pc, #32]	@ (8000730 <_sbrk+0x64>)
 800070e:	681b      	ldr	r3, [r3, #0]
 8000710:	60fb      	str	r3, [r7, #12]
  __sbrk_heap_end += incr;
 8000712:	4b07      	ldr	r3, [pc, #28]	@ (8000730 <_sbrk+0x64>)
 8000714:	681a      	ldr	r2, [r3, #0]
 8000716:	687b      	ldr	r3, [r7, #4]
 8000718:	4413      	add	r3, r2
 800071a:	4a05      	ldr	r2, [pc, #20]	@ (8000730 <_sbrk+0x64>)
 800071c:	6013      	str	r3, [r2, #0]

  return (void *)prev_heap_end;
 800071e:	68fb      	ldr	r3, [r7, #12]
}
 8000720:	4618      	mov	r0, r3
 8000722:	3718      	adds	r7, #24
 8000724:	46bd      	mov	sp, r7
 8000726:	bd80      	pop	{r7, pc}
 8000728:	20020000 	.word	0x20020000
 800072c:	00000400 	.word	0x00000400
 8000730:	200000c4 	.word	0x200000c4
 8000734:	20000248 	.word	0x20000248

08000738 <Reset_Handler>:

  .section .text.Reset_Handler
  .weak Reset_Handler
  .type Reset_Handler, %function
Reset_Handler:
  ldr   r0, =_estack
 8000738:	480d      	ldr	r0, [pc, #52]	@ (8000770 <LoopForever+0x2>)
  mov   sp, r0          /* set stack pointer */
 800073a:	4685      	mov	sp, r0
/* Call the clock system initialization function.*/
  bl  SystemInit
 800073c:	f3af 8000 	nop.w

/* Copy the data segment initializers from flash to SRAM */
  ldr r0, =_sdata
 8000740:	480c      	ldr	r0, [pc, #48]	@ (8000774 <LoopForever+0x6>)
  ldr r1, =_edata
 8000742:	490d      	ldr	r1, [pc, #52]	@ (8000778 <LoopForever+0xa>)
  ldr r2, =_sidata
 8000744:	4a0d      	ldr	r2, [pc, #52]	@ (800077c <LoopForever+0xe>)
  movs r3, #0
 8000746:	2300      	movs	r3, #0
  b LoopCopyDataInit
 8000748:	e002      	b.n	8000750 <LoopCopyDataInit>

0800074a <CopyDataInit>:

CopyDataInit:
  ldr r4, [r2, r3]
 800074a:	58d4      	ldr	r4, [r2, r3]
  str r4, [r0, r3]
 800074c:	50c4      	str	r4, [r0, r3]
  adds r3, r3, #4
 800074e:	3304      	adds	r3, #4

08000750 <LoopCopyDataInit>:

LoopCopyDataInit:
  adds r4, r0, r3
 8000750:	18c4      	adds	r4, r0, r3
  cmp r4, r1
 8000752:	428c      	cmp	r4, r1
  bcc CopyDataInit
 8000754:	d3f9      	bcc.n	800074a <CopyDataInit>

/* Zero fill the bss segment. */
  ldr r2, =_sbss
 8000756:	4a0a      	ldr	r2, [pc, #40]	@ (8000780 <LoopForever+0x12>)
  ldr r4, =_ebss
 8000758:	4c0a      	ldr	r4, [pc, #40]	@ (8000784 <LoopForever+0x16>)
  movs r3, #0
 800075a:	2300      	movs	r3, #0
  b LoopFillZerobss
 800075c:	e001      	b.n	8000762 <LoopFillZerobss>

0800075e <FillZerobss>:

FillZerobss:
  str  r3, [r2]
 800075e:	6013      	str	r3, [r2, #0]
  adds r2, r2, #4
 8000760:	3204      	adds	r2, #4

08000762 <LoopFillZerobss>:

LoopFillZerobss:
  cmp r2, r4
 8000762:	42a2      	cmp	r2, r4
  bcc FillZerobss
 8000764:	d3fb      	bcc.n	800075e <FillZerobss>


/* Call static constructors */
  bl __libc_init_array
 8000766:	f001 f91f 	bl	80019a8 <__libc_init_array>
/* Call the application's entry point.*/

  bl main
 800076a:	f7ff fe61 	bl	8000430 <main>

0800076e <LoopForever>:

LoopForever:
  b LoopForever
 800076e:	e7fe      	b.n	800076e <LoopForever>
  ldr   r0, =_estack
 8000770:	20020000 	.word	0x20020000
  ldr r0, =_sdata
 8000774:	20000000 	.word	0x20000000
  ldr r1, =_edata
 8000778:	20000090 	.word	0x20000090
  ldr r2, =_sidata
 800077c:	08002734 	.word	0x08002734
  ldr r2, =_sbss
 8000780:	20000090 	.word	0x20000090
  ldr r4, =_ebss
 8000784:	20000244 	.word	0x20000244

08000788 <ADC_IRQHandler>:
 * @retval : None
*/
  .section .text.Default_Handler,"ax",%progbits
Default_Handler:
Infinite_Loop:
  b Infinite_Loop
 8000788:	e7fe      	b.n	8000788 <ADC_IRQHandler>
	...

0800078c <ds1307_init>:
static uint8_t binary_to_bcd(uint8_t value);
static uint8_t bcd_to_binary(uint8_t value);

I2C_Handle_t g_ds1307I2cHandle;

uint8_t ds1307_init(void){
 800078c:	b580      	push	{r7, lr}
 800078e:	b082      	sub	sp, #8
 8000790:	af00      	add	r7, sp, #0

	// 1. init the i2c pins
	ds1307_i2c_pin_config(); // helper function to initialize the i2c pins
 8000792:	f000 f911 	bl	80009b8 <ds1307_i2c_pin_config>

	// 2. i2c peripheral init
	ds1307_i2c_config();
 8000796:	f000 f94b 	bl	8000a30 <ds1307_i2c_config>
	// 3. enable thei2c peripheral
	I2C_PeripheralControl(g_ds1307I2cHandle.pI2Cx, ENABLE);
 800079a:	4b0b      	ldr	r3, [pc, #44]	@ (80007c8 <ds1307_init+0x3c>)
 800079c:	681b      	ldr	r3, [r3, #0]
 800079e:	2101      	movs	r1, #1
 80007a0:	4618      	mov	r0, r3
 80007a2:	f000 fe07 	bl	80013b4 <I2C_PeripheralControl>

	// 4. on initial power application to RTC module the CH will be 1 , we need to change this 0 .. for the oscillator to run
    // for this we need to write 1 to the 7 bit of reg_address 00h
	//use the I2C_master sendData function , NOTE USE the DS1307 doc to see how to write to an address
	ds1307_write(0x00,DS1307_ADDR_SEC);
 80007a6:	2100      	movs	r1, #0
 80007a8:	2000      	movs	r0, #0
 80007aa:	f000 f975 	bl	8000a98 <ds1307_write>

	// 5. verify if CH is set to 0 after writing 0 in previous step

	uint8_t DS1307_ch_state = ds1307_read(DS1307_ADDR_SEC);
 80007ae:	2000      	movs	r0, #0
 80007b0:	f000 f954 	bl	8000a5c <ds1307_read>
 80007b4:	4603      	mov	r3, r0
 80007b6:	71fb      	strb	r3, [r7, #7]


	return  ((DS1307_ch_state >> 7 ) & 0x1); // ch is 7th bit
 80007b8:	79fb      	ldrb	r3, [r7, #7]
 80007ba:	09db      	lsrs	r3, r3, #7
 80007bc:	b2db      	uxtb	r3, r3




}
 80007be:	4618      	mov	r0, r3
 80007c0:	3708      	adds	r7, #8
 80007c2:	46bd      	mov	sp, r7
 80007c4:	bd80      	pop	{r7, pc}
 80007c6:	bf00      	nop
 80007c8:	200000c8 	.word	0x200000c8

080007cc <ds1307_set_current_time>:

void ds1307_set_current_time(RTC_Time_t *rtc_time){
 80007cc:	b580      	push	{r7, lr}
 80007ce:	b084      	sub	sp, #16
 80007d0:	af00      	add	r7, sp, #0
 80007d2:	6078      	str	r0, [r7, #4]

	//here we have to go to the individual sec , min , hrs register and set the value provided by user config in BCD format

	//1. program the seconds field
	uint8_t seconds = rtc_time->seconds;
 80007d4:	687b      	ldr	r3, [r7, #4]
 80007d6:	781b      	ldrb	r3, [r3, #0]
 80007d8:	73bb      	strb	r3, [r7, #14]
	//convert to bcd
	seconds = binary_to_bcd(seconds);
 80007da:	7bbb      	ldrb	r3, [r7, #14]
 80007dc:	4618      	mov	r0, r3
 80007de:	f000 f977 	bl	8000ad0 <binary_to_bcd>
 80007e2:	4603      	mov	r3, r0
 80007e4:	73bb      	strb	r3, [r7, #14]
	//program this bcd format seconds in 00h register
	//make sure the 8th bit is still  0 for the oscillator to work
	seconds&=~(1 << 7);
 80007e6:	7bbb      	ldrb	r3, [r7, #14]
 80007e8:	f003 037f 	and.w	r3, r3, #127	@ 0x7f
 80007ec:	73bb      	strb	r3, [r7, #14]
	ds1307_write(seconds, DS1307_ADDR_SEC);
 80007ee:	7bbb      	ldrb	r3, [r7, #14]
 80007f0:	2100      	movs	r1, #0
 80007f2:	4618      	mov	r0, r3
 80007f4:	f000 f950 	bl	8000a98 <ds1307_write>

	//program the minutes
	ds1307_write(binary_to_bcd(rtc_time->minutes),DS1307_ADDR_MIN);
 80007f8:	687b      	ldr	r3, [r7, #4]
 80007fa:	785b      	ldrb	r3, [r3, #1]
 80007fc:	4618      	mov	r0, r3
 80007fe:	f000 f967 	bl	8000ad0 <binary_to_bcd>
 8000802:	4603      	mov	r3, r0
 8000804:	2101      	movs	r1, #1
 8000806:	4618      	mov	r0, r3
 8000808:	f000 f946 	bl	8000a98 <ds1307_write>

	//program the hour , 12 hr and 24 hr format
	uint8_t hrs = binary_to_bcd(rtc_time->hours);
 800080c:	687b      	ldr	r3, [r7, #4]
 800080e:	789b      	ldrb	r3, [r3, #2]
 8000810:	4618      	mov	r0, r3
 8000812:	f000 f95d 	bl	8000ad0 <binary_to_bcd>
 8000816:	4603      	mov	r3, r0
 8000818:	73fb      	strb	r3, [r7, #15]

	if (rtc_time->time_format == TIME_FORMAT_24HRS) {
 800081a:	687b      	ldr	r3, [r7, #4]
 800081c:	78db      	ldrb	r3, [r3, #3]
 800081e:	2b02      	cmp	r3, #2
 8000820:	d104      	bne.n	800082c <ds1307_set_current_time+0x60>
		hrs &= ~(1 << 6);
 8000822:	7bfb      	ldrb	r3, [r7, #15]
 8000824:	f023 0340 	bic.w	r3, r3, #64	@ 0x40
 8000828:	73fb      	strb	r3, [r7, #15]
 800082a:	e011      	b.n	8000850 <ds1307_set_current_time+0x84>
	} else {
		hrs |= (1 << 6);
 800082c:	7bfb      	ldrb	r3, [r7, #15]
 800082e:	f043 0340 	orr.w	r3, r3, #64	@ 0x40
 8000832:	73fb      	strb	r3, [r7, #15]
		hrs = (rtc_time->time_format == TIME_FORMAT_12HRS_PM) ? hrs | (1 << 5) : hrs & ~(1 << 5);
 8000834:	687b      	ldr	r3, [r7, #4]
 8000836:	78db      	ldrb	r3, [r3, #3]
 8000838:	2b01      	cmp	r3, #1
 800083a:	d104      	bne.n	8000846 <ds1307_set_current_time+0x7a>
 800083c:	7bfb      	ldrb	r3, [r7, #15]
 800083e:	f043 0320 	orr.w	r3, r3, #32
 8000842:	b2db      	uxtb	r3, r3
 8000844:	e003      	b.n	800084e <ds1307_set_current_time+0x82>
 8000846:	7bfb      	ldrb	r3, [r7, #15]
 8000848:	f023 0320 	bic.w	r3, r3, #32
 800084c:	b2db      	uxtb	r3, r3
 800084e:	73fb      	strb	r3, [r7, #15]
	}

	ds1307_write(hrs, DS1307_ADDR_HRS);
 8000850:	7bfb      	ldrb	r3, [r7, #15]
 8000852:	2102      	movs	r1, #2
 8000854:	4618      	mov	r0, r3
 8000856:	f000 f91f 	bl	8000a98 <ds1307_write>


}
 800085a:	bf00      	nop
 800085c:	3710      	adds	r7, #16
 800085e:	46bd      	mov	sp, r7
 8000860:	bd80      	pop	{r7, pc}

08000862 <ds1307_get_current_time>:
void ds1307_get_current_time(RTC_Time_t *rtc_time){
 8000862:	b580      	push	{r7, lr}
 8000864:	b084      	sub	sp, #16
 8000866:	af00      	add	r7, sp, #0
 8000868:	6078      	str	r0, [r7, #4]

	// we need to fetch seconds , min , hours , time format and store it back in the data structure
	   uint8_t seconds,hrs;

		seconds = ds1307_read(DS1307_ADDR_SEC);
 800086a:	2000      	movs	r0, #0
 800086c:	f000 f8f6 	bl	8000a5c <ds1307_read>
 8000870:	4603      	mov	r3, r0
 8000872:	73bb      	strb	r3, [r7, #14]

		seconds &= ~( 1 << 7);
 8000874:	7bbb      	ldrb	r3, [r7, #14]
 8000876:	f003 037f 	and.w	r3, r3, #127	@ 0x7f
 800087a:	73bb      	strb	r3, [r7, #14]

		rtc_time->seconds = bcd_to_binary(seconds);
 800087c:	7bbb      	ldrb	r3, [r7, #14]
 800087e:	4618      	mov	r0, r3
 8000880:	f000 f952 	bl	8000b28 <bcd_to_binary>
 8000884:	4603      	mov	r3, r0
 8000886:	461a      	mov	r2, r3
 8000888:	687b      	ldr	r3, [r7, #4]
 800088a:	701a      	strb	r2, [r3, #0]
		rtc_time->minutes = bcd_to_binary(ds1307_read(DS1307_ADDR_MIN));
 800088c:	2001      	movs	r0, #1
 800088e:	f000 f8e5 	bl	8000a5c <ds1307_read>
 8000892:	4603      	mov	r3, r0
 8000894:	4618      	mov	r0, r3
 8000896:	f000 f947 	bl	8000b28 <bcd_to_binary>
 800089a:	4603      	mov	r3, r0
 800089c:	461a      	mov	r2, r3
 800089e:	687b      	ldr	r3, [r7, #4]
 80008a0:	705a      	strb	r2, [r3, #1]

		hrs = ds1307_read(DS1307_ADDR_HRS);
 80008a2:	2002      	movs	r0, #2
 80008a4:	f000 f8da 	bl	8000a5c <ds1307_read>
 80008a8:	4603      	mov	r3, r0
 80008aa:	73fb      	strb	r3, [r7, #15]
		if(hrs & ( 1 << 6)){
 80008ac:	7bfb      	ldrb	r3, [r7, #15]
 80008ae:	f003 0340 	and.w	r3, r3, #64	@ 0x40
 80008b2:	2b00      	cmp	r3, #0
 80008b4:	d00c      	beq.n	80008d0 <ds1307_get_current_time+0x6e>
			//12 hr format
			rtc_time->time_format =  (hrs & ( 1 << 5)) ? TIME_FORMAT_12HRS_PM  	: TIME_FORMAT_12HRS_AM ;
 80008b6:	7bfb      	ldrb	r3, [r7, #15]
 80008b8:	115b      	asrs	r3, r3, #5
 80008ba:	b2db      	uxtb	r3, r3
 80008bc:	f003 0301 	and.w	r3, r3, #1
 80008c0:	b2da      	uxtb	r2, r3
 80008c2:	687b      	ldr	r3, [r7, #4]
 80008c4:	70da      	strb	r2, [r3, #3]
			hrs &= ~(0x3 << 5);//Clear 6 and 5
 80008c6:	7bfb      	ldrb	r3, [r7, #15]
 80008c8:	f023 0360 	bic.w	r3, r3, #96	@ 0x60
 80008cc:	73fb      	strb	r3, [r7, #15]
 80008ce:	e002      	b.n	80008d6 <ds1307_get_current_time+0x74>
		}else{
			//24 hr format
			rtc_time->time_format = TIME_FORMAT_24HRS;
 80008d0:	687b      	ldr	r3, [r7, #4]
 80008d2:	2202      	movs	r2, #2
 80008d4:	70da      	strb	r2, [r3, #3]
		}

		rtc_time->hours = bcd_to_binary(hrs);
 80008d6:	7bfb      	ldrb	r3, [r7, #15]
 80008d8:	4618      	mov	r0, r3
 80008da:	f000 f925 	bl	8000b28 <bcd_to_binary>
 80008de:	4603      	mov	r3, r0
 80008e0:	461a      	mov	r2, r3
 80008e2:	687b      	ldr	r3, [r7, #4]
 80008e4:	709a      	strb	r2, [r3, #2]
	}
 80008e6:	bf00      	nop
 80008e8:	3710      	adds	r7, #16
 80008ea:	46bd      	mov	sp, r7
 80008ec:	bd80      	pop	{r7, pc}

080008ee <ds1307_set_current_date>:


void ds1307_set_current_date(RTC_Date_t *rtc_date){
 80008ee:	b580      	push	{r7, lr}
 80008f0:	b082      	sub	sp, #8
 80008f2:	af00      	add	r7, sp, #0
 80008f4:	6078      	str	r0, [r7, #4]

	ds1307_write(binary_to_bcd(rtc_date->date), DS1307_ADDR_DATE);
 80008f6:	687b      	ldr	r3, [r7, #4]
 80008f8:	781b      	ldrb	r3, [r3, #0]
 80008fa:	4618      	mov	r0, r3
 80008fc:	f000 f8e8 	bl	8000ad0 <binary_to_bcd>
 8000900:	4603      	mov	r3, r0
 8000902:	2104      	movs	r1, #4
 8000904:	4618      	mov	r0, r3
 8000906:	f000 f8c7 	bl	8000a98 <ds1307_write>

	ds1307_write(binary_to_bcd(rtc_date->month), DS1307_ADDR_MONTH);
 800090a:	687b      	ldr	r3, [r7, #4]
 800090c:	785b      	ldrb	r3, [r3, #1]
 800090e:	4618      	mov	r0, r3
 8000910:	f000 f8de 	bl	8000ad0 <binary_to_bcd>
 8000914:	4603      	mov	r3, r0
 8000916:	2105      	movs	r1, #5
 8000918:	4618      	mov	r0, r3
 800091a:	f000 f8bd 	bl	8000a98 <ds1307_write>

	ds1307_write(binary_to_bcd(rtc_date->year), DS1307_ADDR_YEAR);
 800091e:	687b      	ldr	r3, [r7, #4]
 8000920:	789b      	ldrb	r3, [r3, #2]
 8000922:	4618      	mov	r0, r3
 8000924:	f000 f8d4 	bl	8000ad0 <binary_to_bcd>
 8000928:	4603      	mov	r3, r0
 800092a:	2106      	movs	r1, #6
 800092c:	4618      	mov	r0, r3
 800092e:	f000 f8b3 	bl	8000a98 <ds1307_write>

	ds1307_write(binary_to_bcd(rtc_date->day), DS1307_ADDR_DAY);
 8000932:	687b      	ldr	r3, [r7, #4]
 8000934:	78db      	ldrb	r3, [r3, #3]
 8000936:	4618      	mov	r0, r3
 8000938:	f000 f8ca 	bl	8000ad0 <binary_to_bcd>
 800093c:	4603      	mov	r3, r0
 800093e:	2103      	movs	r1, #3
 8000940:	4618      	mov	r0, r3
 8000942:	f000 f8a9 	bl	8000a98 <ds1307_write>


}
 8000946:	bf00      	nop
 8000948:	3708      	adds	r7, #8
 800094a:	46bd      	mov	sp, r7
 800094c:	bd80      	pop	{r7, pc}

0800094e <ds1307_get_current_date>:
void ds1307_get_current_date(RTC_Date_t *rtc_date){
 800094e:	b580      	push	{r7, lr}
 8000950:	b082      	sub	sp, #8
 8000952:	af00      	add	r7, sp, #0
 8000954:	6078      	str	r0, [r7, #4]

	rtc_date->day = bcd_to_binary(ds1307_read(DS1307_ADDR_DAY));
 8000956:	2003      	movs	r0, #3
 8000958:	f000 f880 	bl	8000a5c <ds1307_read>
 800095c:	4603      	mov	r3, r0
 800095e:	4618      	mov	r0, r3
 8000960:	f000 f8e2 	bl	8000b28 <bcd_to_binary>
 8000964:	4603      	mov	r3, r0
 8000966:	461a      	mov	r2, r3
 8000968:	687b      	ldr	r3, [r7, #4]
 800096a:	70da      	strb	r2, [r3, #3]
	rtc_date->date = bcd_to_binary(ds1307_read(DS1307_ADDR_DATE));
 800096c:	2004      	movs	r0, #4
 800096e:	f000 f875 	bl	8000a5c <ds1307_read>
 8000972:	4603      	mov	r3, r0
 8000974:	4618      	mov	r0, r3
 8000976:	f000 f8d7 	bl	8000b28 <bcd_to_binary>
 800097a:	4603      	mov	r3, r0
 800097c:	461a      	mov	r2, r3
 800097e:	687b      	ldr	r3, [r7, #4]
 8000980:	701a      	strb	r2, [r3, #0]
	rtc_date->month = bcd_to_binary(ds1307_read(DS1307_ADDR_MONTH));
 8000982:	2005      	movs	r0, #5
 8000984:	f000 f86a 	bl	8000a5c <ds1307_read>
 8000988:	4603      	mov	r3, r0
 800098a:	4618      	mov	r0, r3
 800098c:	f000 f8cc 	bl	8000b28 <bcd_to_binary>
 8000990:	4603      	mov	r3, r0
 8000992:	461a      	mov	r2, r3
 8000994:	687b      	ldr	r3, [r7, #4]
 8000996:	705a      	strb	r2, [r3, #1]
	rtc_date->year = bcd_to_binary(ds1307_read(DS1307_ADDR_YEAR));
 8000998:	2006      	movs	r0, #6
 800099a:	f000 f85f 	bl	8000a5c <ds1307_read>
 800099e:	4603      	mov	r3, r0
 80009a0:	4618      	mov	r0, r3
 80009a2:	f000 f8c1 	bl	8000b28 <bcd_to_binary>
 80009a6:	4603      	mov	r3, r0
 80009a8:	461a      	mov	r2, r3
 80009aa:	687b      	ldr	r3, [r7, #4]
 80009ac:	709a      	strb	r2, [r3, #2]
}
 80009ae:	bf00      	nop
 80009b0:	3708      	adds	r7, #8
 80009b2:	46bd      	mov	sp, r7
 80009b4:	bd80      	pop	{r7, pc}
	...

080009b8 <ds1307_i2c_pin_config>:

static void ds1307_i2c_pin_config(void)
{
 80009b8:	b580      	push	{r7, lr}
 80009ba:	b086      	sub	sp, #24
 80009bc:	af00      	add	r7, sp, #0
	GPIO_Handle_t i2c_sda,i2c_scl;

	memset(&i2c_sda,0,sizeof(i2c_sda)); //best practice to do
 80009be:	f107 030c 	add.w	r3, r7, #12
 80009c2:	220c      	movs	r2, #12
 80009c4:	2100      	movs	r1, #0
 80009c6:	4618      	mov	r0, r3
 80009c8:	f000 ffe0 	bl	800198c <memset>
	memset(&i2c_scl,0,sizeof(i2c_scl));
 80009cc:	463b      	mov	r3, r7
 80009ce:	220c      	movs	r2, #12
 80009d0:	2100      	movs	r1, #0
 80009d2:	4618      	mov	r0, r3
 80009d4:	f000 ffda 	bl	800198c <memset>
	/*
	 * I2C1_SCL ==> PB6
	 * I2C1_SDA ==> PB7
	 */

	i2c_sda.pGPIOx = DS1307_I2C_GPIO_PORT;
 80009d8:	4b14      	ldr	r3, [pc, #80]	@ (8000a2c <ds1307_i2c_pin_config+0x74>)
 80009da:	60fb      	str	r3, [r7, #12]
	i2c_sda.GPIO_PinConfig.GPIO_PinAltFunMode = 4;
 80009dc:	2304      	movs	r3, #4
 80009de:	757b      	strb	r3, [r7, #21]
	i2c_sda.GPIO_PinConfig.GPIO_PinMode = GPIO_MODE_ALTFN;
 80009e0:	2302      	movs	r3, #2
 80009e2:	747b      	strb	r3, [r7, #17]
	i2c_sda.GPIO_PinConfig.GPIO_PinNumber = DS1307_I2C_SDA_PIN;
 80009e4:	2307      	movs	r3, #7
 80009e6:	743b      	strb	r3, [r7, #16]
	i2c_sda.GPIO_PinConfig.GPIO_PinOPType = GPIO_OP_TYPE_OD;
 80009e8:	2301      	movs	r3, #1
 80009ea:	753b      	strb	r3, [r7, #20]
	i2c_sda.GPIO_PinConfig.GPIO_PinPuPdControl = DS1307_I2C_PUPD_CONFIG;
 80009ec:	2301      	movs	r3, #1
 80009ee:	74fb      	strb	r3, [r7, #19]
	i2c_sda.GPIO_PinConfig.GPIO_PinSpeed = GPIO_SPEED_FAST;
 80009f0:	2302      	movs	r3, #2
 80009f2:	74bb      	strb	r3, [r7, #18]

	GPIO_Init(&i2c_sda);
 80009f4:	f107 030c 	add.w	r3, r7, #12
 80009f8:	4618      	mov	r0, r3
 80009fa:	f000 f8af 	bl	8000b5c <GPIO_Init>


	i2c_scl.pGPIOx = DS1307_I2C_GPIO_PORT;
 80009fe:	4b0b      	ldr	r3, [pc, #44]	@ (8000a2c <ds1307_i2c_pin_config+0x74>)
 8000a00:	603b      	str	r3, [r7, #0]
	i2c_scl.GPIO_PinConfig.GPIO_PinAltFunMode = 4;
 8000a02:	2304      	movs	r3, #4
 8000a04:	727b      	strb	r3, [r7, #9]
	i2c_scl.GPIO_PinConfig.GPIO_PinMode = GPIO_MODE_ALTFN;
 8000a06:	2302      	movs	r3, #2
 8000a08:	717b      	strb	r3, [r7, #5]
	i2c_scl.GPIO_PinConfig.GPIO_PinNumber = DS1307_I2C_SCL_PIN;
 8000a0a:	2306      	movs	r3, #6
 8000a0c:	713b      	strb	r3, [r7, #4]
	i2c_scl.GPIO_PinConfig.GPIO_PinOPType = GPIO_OP_TYPE_OD;
 8000a0e:	2301      	movs	r3, #1
 8000a10:	723b      	strb	r3, [r7, #8]
	i2c_scl.GPIO_PinConfig.GPIO_PinPuPdControl = DS1307_I2C_PUPD_CONFIG;
 8000a12:	2301      	movs	r3, #1
 8000a14:	71fb      	strb	r3, [r7, #7]
	i2c_scl.GPIO_PinConfig.GPIO_PinSpeed = GPIO_SPEED_FAST;
 8000a16:	2302      	movs	r3, #2
 8000a18:	71bb      	strb	r3, [r7, #6]

	GPIO_Init(&i2c_scl);
 8000a1a:	463b      	mov	r3, r7
 8000a1c:	4618      	mov	r0, r3
 8000a1e:	f000 f89d 	bl	8000b5c <GPIO_Init>

}
 8000a22:	bf00      	nop
 8000a24:	3718      	adds	r7, #24
 8000a26:	46bd      	mov	sp, r7
 8000a28:	bd80      	pop	{r7, pc}
 8000a2a:	bf00      	nop
 8000a2c:	40020400 	.word	0x40020400

08000a30 <ds1307_i2c_config>:


static void ds1307_i2c_config(void)
{
 8000a30:	b580      	push	{r7, lr}
 8000a32:	af00      	add	r7, sp, #0
	g_ds1307I2cHandle.pI2Cx = DS1307_I2C;
 8000a34:	4b06      	ldr	r3, [pc, #24]	@ (8000a50 <ds1307_i2c_config+0x20>)
 8000a36:	4a07      	ldr	r2, [pc, #28]	@ (8000a54 <ds1307_i2c_config+0x24>)
 8000a38:	601a      	str	r2, [r3, #0]
	g_ds1307I2cHandle.I2C_Config.I2C_AckControl = I2C_ACK_ENABLE;
 8000a3a:	4b05      	ldr	r3, [pc, #20]	@ (8000a50 <ds1307_i2c_config+0x20>)
 8000a3c:	2201      	movs	r2, #1
 8000a3e:	60da      	str	r2, [r3, #12]
	g_ds1307I2cHandle.I2C_Config.I2C_SCLSpeed = DS1307_I2C_SPEED;
 8000a40:	4b03      	ldr	r3, [pc, #12]	@ (8000a50 <ds1307_i2c_config+0x20>)
 8000a42:	4a05      	ldr	r2, [pc, #20]	@ (8000a58 <ds1307_i2c_config+0x28>)
 8000a44:	605a      	str	r2, [r3, #4]
	I2C_Init(&g_ds1307I2cHandle);
 8000a46:	4802      	ldr	r0, [pc, #8]	@ (8000a50 <ds1307_i2c_config+0x20>)
 8000a48:	f000 fbf0 	bl	800122c <I2C_Init>
}
 8000a4c:	bf00      	nop
 8000a4e:	bd80      	pop	{r7, pc}
 8000a50:	200000c8 	.word	0x200000c8
 8000a54:	40005400 	.word	0x40005400
 8000a58:	000186a0 	.word	0x000186a0

08000a5c <ds1307_read>:

static uint8_t ds1307_read(uint8_t reg_addr){
 8000a5c:	b580      	push	{r7, lr}
 8000a5e:	b086      	sub	sp, #24
 8000a60:	af02      	add	r7, sp, #8
 8000a62:	4603      	mov	r3, r0
 8000a64:	71fb      	strb	r3, [r7, #7]
	// this function is done to read the value at particular reg_address of DS1307 chip
	// firstly i am using it to verify if the value at 00h reg_address after making ch=0 has actually worked
	// for this first make the internal address pointer point to the given address
	uint8_t data;
	I2C_MasterSendData(&g_ds1307I2cHandle, &reg_addr, 1, DS1307_I2C_ADDRESS,0);
 8000a66:	1df9      	adds	r1, r7, #7
 8000a68:	2300      	movs	r3, #0
 8000a6a:	9300      	str	r3, [sp, #0]
 8000a6c:	2368      	movs	r3, #104	@ 0x68
 8000a6e:	2201      	movs	r2, #1
 8000a70:	4808      	ldr	r0, [pc, #32]	@ (8000a94 <ds1307_read+0x38>)
 8000a72:	f000 fce8 	bl	8001446 <I2C_MasterSendData>

	//receive
	I2C_MasterReceiveData(&g_ds1307I2cHandle, &data, 1, DS1307_I2C_ADDRESS,0);
 8000a76:	f107 010f 	add.w	r1, r7, #15
 8000a7a:	2300      	movs	r3, #0
 8000a7c:	9300      	str	r3, [sp, #0]
 8000a7e:	2368      	movs	r3, #104	@ 0x68
 8000a80:	2201      	movs	r2, #1
 8000a82:	4804      	ldr	r0, [pc, #16]	@ (8000a94 <ds1307_read+0x38>)
 8000a84:	f000 fd46 	bl	8001514 <I2C_MasterReceiveData>

	return data;
 8000a88:	7bfb      	ldrb	r3, [r7, #15]


}
 8000a8a:	4618      	mov	r0, r3
 8000a8c:	3710      	adds	r7, #16
 8000a8e:	46bd      	mov	sp, r7
 8000a90:	bd80      	pop	{r7, pc}
 8000a92:	bf00      	nop
 8000a94:	200000c8 	.word	0x200000c8

08000a98 <ds1307_write>:
static void ds1307_write(uint8_t value,uint8_t reg_addr){
 8000a98:	b580      	push	{r7, lr}
 8000a9a:	b086      	sub	sp, #24
 8000a9c:	af02      	add	r7, sp, #8
 8000a9e:	4603      	mov	r3, r0
 8000aa0:	460a      	mov	r2, r1
 8000aa2:	71fb      	strb	r3, [r7, #7]
 8000aa4:	4613      	mov	r3, r2
 8000aa6:	71bb      	strb	r3, [r7, #6]

	// we need to send address first followed by value
	// by sending address first the internal address pointer of DS1307 chip will point to the reg_adress
	uint8_t tx[2];
	tx[0] = reg_addr;
 8000aa8:	79bb      	ldrb	r3, [r7, #6]
 8000aaa:	733b      	strb	r3, [r7, #12]
	tx[1] = value;
 8000aac:	79fb      	ldrb	r3, [r7, #7]
 8000aae:	737b      	strb	r3, [r7, #13]
	I2C_MasterSendData(&g_ds1307I2cHandle, tx, 2, DS1307_I2C_ADDRESS, 0);
 8000ab0:	f107 010c 	add.w	r1, r7, #12
 8000ab4:	2300      	movs	r3, #0
 8000ab6:	9300      	str	r3, [sp, #0]
 8000ab8:	2368      	movs	r3, #104	@ 0x68
 8000aba:	2202      	movs	r2, #2
 8000abc:	4803      	ldr	r0, [pc, #12]	@ (8000acc <ds1307_write+0x34>)
 8000abe:	f000 fcc2 	bl	8001446 <I2C_MasterSendData>
}
 8000ac2:	bf00      	nop
 8000ac4:	3710      	adds	r7, #16
 8000ac6:	46bd      	mov	sp, r7
 8000ac8:	bd80      	pop	{r7, pc}
 8000aca:	bf00      	nop
 8000acc:	200000c8 	.word	0x200000c8

08000ad0 <binary_to_bcd>:

// try to work this out on book ... easy to understand + Binary shifiting
// in BCD each digit is represented by 4 bits
static uint8_t binary_to_bcd(uint8_t value)
{
 8000ad0:	b480      	push	{r7}
 8000ad2:	b085      	sub	sp, #20
 8000ad4:	af00      	add	r7, sp, #0
 8000ad6:	4603      	mov	r3, r0
 8000ad8:	71fb      	strb	r3, [r7, #7]
	uint8_t m , n;
	uint8_t bcd;

	bcd = value;
 8000ada:	79fb      	ldrb	r3, [r7, #7]
 8000adc:	73fb      	strb	r3, [r7, #15]
	if(value >= 10)
 8000ade:	79fb      	ldrb	r3, [r7, #7]
 8000ae0:	2b09      	cmp	r3, #9
 8000ae2:	d919      	bls.n	8000b18 <binary_to_bcd+0x48>
	{
		m = value /10;
 8000ae4:	79fb      	ldrb	r3, [r7, #7]
 8000ae6:	4a0f      	ldr	r2, [pc, #60]	@ (8000b24 <binary_to_bcd+0x54>)
 8000ae8:	fba2 2303 	umull	r2, r3, r2, r3
 8000aec:	08db      	lsrs	r3, r3, #3
 8000aee:	73bb      	strb	r3, [r7, #14]
		n = value % 10;
 8000af0:	79fa      	ldrb	r2, [r7, #7]
 8000af2:	4b0c      	ldr	r3, [pc, #48]	@ (8000b24 <binary_to_bcd+0x54>)
 8000af4:	fba3 1302 	umull	r1, r3, r3, r2
 8000af8:	08d9      	lsrs	r1, r3, #3
 8000afa:	460b      	mov	r3, r1
 8000afc:	009b      	lsls	r3, r3, #2
 8000afe:	440b      	add	r3, r1
 8000b00:	005b      	lsls	r3, r3, #1
 8000b02:	1ad3      	subs	r3, r2, r3
 8000b04:	737b      	strb	r3, [r7, #13]
		bcd = (m << 4) | n ;
 8000b06:	f997 300e 	ldrsb.w	r3, [r7, #14]
 8000b0a:	011b      	lsls	r3, r3, #4
 8000b0c:	b25a      	sxtb	r2, r3
 8000b0e:	f997 300d 	ldrsb.w	r3, [r7, #13]
 8000b12:	4313      	orrs	r3, r2
 8000b14:	b25b      	sxtb	r3, r3
 8000b16:	73fb      	strb	r3, [r7, #15]
	}

	return bcd;
 8000b18:	7bfb      	ldrb	r3, [r7, #15]
}
 8000b1a:	4618      	mov	r0, r3
 8000b1c:	3714      	adds	r7, #20
 8000b1e:	46bd      	mov	sp, r7
 8000b20:	bc80      	pop	{r7}
 8000b22:	4770      	bx	lr
 8000b24:	cccccccd 	.word	0xcccccccd

08000b28 <bcd_to_binary>:

static uint8_t bcd_to_binary(uint8_t value)
{
 8000b28:	b480      	push	{r7}
 8000b2a:	b085      	sub	sp, #20
 8000b2c:	af00      	add	r7, sp, #0
 8000b2e:	4603      	mov	r3, r0
 8000b30:	71fb      	strb	r3, [r7, #7]
	uint8_t m , n;
	m = (uint8_t) ((value >> 4 ) * 10);
 8000b32:	79fb      	ldrb	r3, [r7, #7]
 8000b34:	091b      	lsrs	r3, r3, #4
 8000b36:	b2db      	uxtb	r3, r3
 8000b38:	461a      	mov	r2, r3
 8000b3a:	0092      	lsls	r2, r2, #2
 8000b3c:	4413      	add	r3, r2
 8000b3e:	005b      	lsls	r3, r3, #1
 8000b40:	73fb      	strb	r3, [r7, #15]
	n =  value & (uint8_t)0x0F;
 8000b42:	79fb      	ldrb	r3, [r7, #7]
 8000b44:	f003 030f 	and.w	r3, r3, #15
 8000b48:	73bb      	strb	r3, [r7, #14]
	return (m+n);
 8000b4a:	7bfa      	ldrb	r2, [r7, #15]
 8000b4c:	7bbb      	ldrb	r3, [r7, #14]
 8000b4e:	4413      	add	r3, r2
 8000b50:	b2db      	uxtb	r3, r3
}
 8000b52:	4618      	mov	r0, r3
 8000b54:	3714      	adds	r7, #20
 8000b56:	46bd      	mov	sp, r7
 8000b58:	bc80      	pop	{r7}
 8000b5a:	4770      	bx	lr

08000b5c <GPIO_Init>:
 *  Created on: Sep 20, 2025
 *      Author: LENOVO
 */

#include "stm32f4xx_gpio_driver.h"
void GPIO_Init(GPIO_Handle_t *pGPIOHandle){
 8000b5c:	b580      	push	{r7, lr}
 8000b5e:	b086      	sub	sp, #24
 8000b60:	af00      	add	r7, sp, #0
 8000b62:	6078      	str	r0, [r7, #4]
	uint32_t temp=0;
 8000b64:	2300      	movs	r3, #0
 8000b66:	617b      	str	r3, [r7, #20]

	GPIO_PeripheralClockControl(pGPIOHandle->pGPIOx, ENABLE);
 8000b68:	687b      	ldr	r3, [r7, #4]
 8000b6a:	681b      	ldr	r3, [r3, #0]
 8000b6c:	2101      	movs	r1, #1
 8000b6e:	4618      	mov	r0, r3
 8000b70:	f000 f9a4 	bl	8000ebc <GPIO_PeripheralClockControl>

	//1. configure the mode of gpio pin
	if(pGPIOHandle->GPIO_PinConfig.GPIO_PinMode <= GPIO_MODE_ANALOG)
 8000b74:	687b      	ldr	r3, [r7, #4]
 8000b76:	795b      	ldrb	r3, [r3, #5]
 8000b78:	2b03      	cmp	r3, #3
 8000b7a:	d820      	bhi.n	8000bbe <GPIO_Init+0x62>
	{
		// non - interrupt mode
		temp = (pGPIOHandle->GPIO_PinConfig.GPIO_PinMode << (2 * pGPIOHandle->GPIO_PinConfig.GPIO_PinNumber));
 8000b7c:	687b      	ldr	r3, [r7, #4]
 8000b7e:	795b      	ldrb	r3, [r3, #5]
 8000b80:	461a      	mov	r2, r3
 8000b82:	687b      	ldr	r3, [r7, #4]
 8000b84:	791b      	ldrb	r3, [r3, #4]
 8000b86:	005b      	lsls	r3, r3, #1
 8000b88:	fa02 f303 	lsl.w	r3, r2, r3
 8000b8c:	617b      	str	r3, [r7, #20]
		// now do set this mode in the GPIO register structure which is pointing to actual GPIOx peripheral
		pGPIOHandle->pGPIOx->MODER &=(~(0x3 <<(2 * pGPIOHandle->GPIO_PinConfig.GPIO_PinNumber)));
 8000b8e:	687b      	ldr	r3, [r7, #4]
 8000b90:	681b      	ldr	r3, [r3, #0]
 8000b92:	681a      	ldr	r2, [r3, #0]
 8000b94:	687b      	ldr	r3, [r7, #4]
 8000b96:	791b      	ldrb	r3, [r3, #4]
 8000b98:	005b      	lsls	r3, r3, #1
 8000b9a:	2103      	movs	r1, #3
 8000b9c:	fa01 f303 	lsl.w	r3, r1, r3
 8000ba0:	43db      	mvns	r3, r3
 8000ba2:	4619      	mov	r1, r3
 8000ba4:	687b      	ldr	r3, [r7, #4]
 8000ba6:	681b      	ldr	r3, [r3, #0]
 8000ba8:	400a      	ands	r2, r1
 8000baa:	601a      	str	r2, [r3, #0]
		pGPIOHandle->pGPIOx->MODER |= temp;
 8000bac:	687b      	ldr	r3, [r7, #4]
 8000bae:	681b      	ldr	r3, [r3, #0]
 8000bb0:	6819      	ldr	r1, [r3, #0]
 8000bb2:	687b      	ldr	r3, [r7, #4]
 8000bb4:	681b      	ldr	r3, [r3, #0]
 8000bb6:	697a      	ldr	r2, [r7, #20]
 8000bb8:	430a      	orrs	r2, r1
 8000bba:	601a      	str	r2, [r3, #0]
 8000bbc:	e0c5      	b.n	8000d4a <GPIO_Init+0x1ee>

	}
	else
	{
		// interrupt mode - code it later
		if(pGPIOHandle->GPIO_PinConfig.GPIO_PinMode <= GPIO_MODE_IT_FT)
 8000bbe:	687b      	ldr	r3, [r7, #4]
 8000bc0:	795b      	ldrb	r3, [r3, #5]
 8000bc2:	2b04      	cmp	r3, #4
 8000bc4:	d817      	bhi.n	8000bf6 <GPIO_Init+0x9a>
		{
			// configure Falling trigger using FTSR
			EXTI->FTSR|= (1 << pGPIOHandle->GPIO_PinConfig.GPIO_PinNumber);
 8000bc6:	4b47      	ldr	r3, [pc, #284]	@ (8000ce4 <GPIO_Init+0x188>)
 8000bc8:	68db      	ldr	r3, [r3, #12]
 8000bca:	687a      	ldr	r2, [r7, #4]
 8000bcc:	7912      	ldrb	r2, [r2, #4]
 8000bce:	4611      	mov	r1, r2
 8000bd0:	2201      	movs	r2, #1
 8000bd2:	408a      	lsls	r2, r1
 8000bd4:	4611      	mov	r1, r2
 8000bd6:	4a43      	ldr	r2, [pc, #268]	@ (8000ce4 <GPIO_Init+0x188>)
 8000bd8:	430b      	orrs	r3, r1
 8000bda:	60d3      	str	r3, [r2, #12]

			//clear the corresponding RTSR bit for safety
			EXTI->RTSR|= ~(1 << pGPIOHandle->GPIO_PinConfig.GPIO_PinNumber);
 8000bdc:	4b41      	ldr	r3, [pc, #260]	@ (8000ce4 <GPIO_Init+0x188>)
 8000bde:	689b      	ldr	r3, [r3, #8]
 8000be0:	687a      	ldr	r2, [r7, #4]
 8000be2:	7912      	ldrb	r2, [r2, #4]
 8000be4:	4611      	mov	r1, r2
 8000be6:	2201      	movs	r2, #1
 8000be8:	408a      	lsls	r2, r1
 8000bea:	43d2      	mvns	r2, r2
 8000bec:	4611      	mov	r1, r2
 8000bee:	4a3d      	ldr	r2, [pc, #244]	@ (8000ce4 <GPIO_Init+0x188>)
 8000bf0:	430b      	orrs	r3, r1
 8000bf2:	6093      	str	r3, [r2, #8]
 8000bf4:	e035      	b.n	8000c62 <GPIO_Init+0x106>
		}
		else if(pGPIOHandle->GPIO_PinConfig.GPIO_PinMode <= GPIO_MODE_IT_RT)
 8000bf6:	687b      	ldr	r3, [r7, #4]
 8000bf8:	795b      	ldrb	r3, [r3, #5]
 8000bfa:	2b05      	cmp	r3, #5
 8000bfc:	d817      	bhi.n	8000c2e <GPIO_Init+0xd2>
		{
			//configure Rising trigger RTSR
			EXTI->RTSR|= (1 << pGPIOHandle->GPIO_PinConfig.GPIO_PinNumber);
 8000bfe:	4b39      	ldr	r3, [pc, #228]	@ (8000ce4 <GPIO_Init+0x188>)
 8000c00:	689b      	ldr	r3, [r3, #8]
 8000c02:	687a      	ldr	r2, [r7, #4]
 8000c04:	7912      	ldrb	r2, [r2, #4]
 8000c06:	4611      	mov	r1, r2
 8000c08:	2201      	movs	r2, #1
 8000c0a:	408a      	lsls	r2, r1
 8000c0c:	4611      	mov	r1, r2
 8000c0e:	4a35      	ldr	r2, [pc, #212]	@ (8000ce4 <GPIO_Init+0x188>)
 8000c10:	430b      	orrs	r3, r1
 8000c12:	6093      	str	r3, [r2, #8]

			//clear the corresponding FTSR bit for safety
			EXTI->FTSR|= ~(1 << pGPIOHandle->GPIO_PinConfig.GPIO_PinNumber);
 8000c14:	4b33      	ldr	r3, [pc, #204]	@ (8000ce4 <GPIO_Init+0x188>)
 8000c16:	68db      	ldr	r3, [r3, #12]
 8000c18:	687a      	ldr	r2, [r7, #4]
 8000c1a:	7912      	ldrb	r2, [r2, #4]
 8000c1c:	4611      	mov	r1, r2
 8000c1e:	2201      	movs	r2, #1
 8000c20:	408a      	lsls	r2, r1
 8000c22:	43d2      	mvns	r2, r2
 8000c24:	4611      	mov	r1, r2
 8000c26:	4a2f      	ldr	r2, [pc, #188]	@ (8000ce4 <GPIO_Init+0x188>)
 8000c28:	430b      	orrs	r3, r1
 8000c2a:	60d3      	str	r3, [r2, #12]
 8000c2c:	e019      	b.n	8000c62 <GPIO_Init+0x106>
		}
		else if(pGPIOHandle->GPIO_PinConfig.GPIO_PinMode <= GPIO_MODE_IT_RFT)
 8000c2e:	687b      	ldr	r3, [r7, #4]
 8000c30:	795b      	ldrb	r3, [r3, #5]
 8000c32:	2b06      	cmp	r3, #6
 8000c34:	d815      	bhi.n	8000c62 <GPIO_Init+0x106>
		{
			// configure both falling trigger and rising trigger
			// FTSR and RTSR
			EXTI->FTSR|= (1 << pGPIOHandle->GPIO_PinConfig.GPIO_PinNumber);
 8000c36:	4b2b      	ldr	r3, [pc, #172]	@ (8000ce4 <GPIO_Init+0x188>)
 8000c38:	68db      	ldr	r3, [r3, #12]
 8000c3a:	687a      	ldr	r2, [r7, #4]
 8000c3c:	7912      	ldrb	r2, [r2, #4]
 8000c3e:	4611      	mov	r1, r2
 8000c40:	2201      	movs	r2, #1
 8000c42:	408a      	lsls	r2, r1
 8000c44:	4611      	mov	r1, r2
 8000c46:	4a27      	ldr	r2, [pc, #156]	@ (8000ce4 <GPIO_Init+0x188>)
 8000c48:	430b      	orrs	r3, r1
 8000c4a:	60d3      	str	r3, [r2, #12]
			EXTI->RTSR|= (1 << pGPIOHandle->GPIO_PinConfig.GPIO_PinNumber);
 8000c4c:	4b25      	ldr	r3, [pc, #148]	@ (8000ce4 <GPIO_Init+0x188>)
 8000c4e:	689b      	ldr	r3, [r3, #8]
 8000c50:	687a      	ldr	r2, [r7, #4]
 8000c52:	7912      	ldrb	r2, [r2, #4]
 8000c54:	4611      	mov	r1, r2
 8000c56:	2201      	movs	r2, #1
 8000c58:	408a      	lsls	r2, r1
 8000c5a:	4611      	mov	r1, r2
 8000c5c:	4a21      	ldr	r2, [pc, #132]	@ (8000ce4 <GPIO_Init+0x188>)
 8000c5e:	430b      	orrs	r3, r1
 8000c60:	6093      	str	r3, [r2, #8]

		}

		//2. configure the GPIO port selection in the SYSCFG_EXTICR

		uint8_t temp1=pGPIOHandle->GPIO_PinConfig.GPIO_PinNumber/4;
 8000c62:	687b      	ldr	r3, [r7, #4]
 8000c64:	791b      	ldrb	r3, [r3, #4]
 8000c66:	089b      	lsrs	r3, r3, #2
 8000c68:	74fb      	strb	r3, [r7, #19]
		uint8_t temp2=pGPIOHandle->GPIO_PinConfig.GPIO_PinNumber%4;
 8000c6a:	687b      	ldr	r3, [r7, #4]
 8000c6c:	791b      	ldrb	r3, [r3, #4]
 8000c6e:	f003 0303 	and.w	r3, r3, #3
 8000c72:	74bb      	strb	r3, [r7, #18]
		uint8_t portcode =GPIO_BASEADDR_TO_CODE(pGPIOHandle->pGPIOx);
 8000c74:	687b      	ldr	r3, [r7, #4]
 8000c76:	681b      	ldr	r3, [r3, #0]
 8000c78:	4a1b      	ldr	r2, [pc, #108]	@ (8000ce8 <GPIO_Init+0x18c>)
 8000c7a:	4293      	cmp	r3, r2
 8000c7c:	d044      	beq.n	8000d08 <GPIO_Init+0x1ac>
 8000c7e:	687b      	ldr	r3, [r7, #4]
 8000c80:	681b      	ldr	r3, [r3, #0]
 8000c82:	4a1a      	ldr	r2, [pc, #104]	@ (8000cec <GPIO_Init+0x190>)
 8000c84:	4293      	cmp	r3, r2
 8000c86:	d02b      	beq.n	8000ce0 <GPIO_Init+0x184>
 8000c88:	687b      	ldr	r3, [r7, #4]
 8000c8a:	681b      	ldr	r3, [r3, #0]
 8000c8c:	4a18      	ldr	r2, [pc, #96]	@ (8000cf0 <GPIO_Init+0x194>)
 8000c8e:	4293      	cmp	r3, r2
 8000c90:	d024      	beq.n	8000cdc <GPIO_Init+0x180>
 8000c92:	687b      	ldr	r3, [r7, #4]
 8000c94:	681b      	ldr	r3, [r3, #0]
 8000c96:	4a17      	ldr	r2, [pc, #92]	@ (8000cf4 <GPIO_Init+0x198>)
 8000c98:	4293      	cmp	r3, r2
 8000c9a:	d01d      	beq.n	8000cd8 <GPIO_Init+0x17c>
 8000c9c:	687b      	ldr	r3, [r7, #4]
 8000c9e:	681b      	ldr	r3, [r3, #0]
 8000ca0:	4a15      	ldr	r2, [pc, #84]	@ (8000cf8 <GPIO_Init+0x19c>)
 8000ca2:	4293      	cmp	r3, r2
 8000ca4:	d016      	beq.n	8000cd4 <GPIO_Init+0x178>
 8000ca6:	687b      	ldr	r3, [r7, #4]
 8000ca8:	681b      	ldr	r3, [r3, #0]
 8000caa:	4a14      	ldr	r2, [pc, #80]	@ (8000cfc <GPIO_Init+0x1a0>)
 8000cac:	4293      	cmp	r3, r2
 8000cae:	d00f      	beq.n	8000cd0 <GPIO_Init+0x174>
 8000cb0:	687b      	ldr	r3, [r7, #4]
 8000cb2:	681b      	ldr	r3, [r3, #0]
 8000cb4:	4a12      	ldr	r2, [pc, #72]	@ (8000d00 <GPIO_Init+0x1a4>)
 8000cb6:	4293      	cmp	r3, r2
 8000cb8:	d008      	beq.n	8000ccc <GPIO_Init+0x170>
 8000cba:	687b      	ldr	r3, [r7, #4]
 8000cbc:	681b      	ldr	r3, [r3, #0]
 8000cbe:	4a11      	ldr	r2, [pc, #68]	@ (8000d04 <GPIO_Init+0x1a8>)
 8000cc0:	4293      	cmp	r3, r2
 8000cc2:	d101      	bne.n	8000cc8 <GPIO_Init+0x16c>
 8000cc4:	2307      	movs	r3, #7
 8000cc6:	e020      	b.n	8000d0a <GPIO_Init+0x1ae>
 8000cc8:	2300      	movs	r3, #0
 8000cca:	e01e      	b.n	8000d0a <GPIO_Init+0x1ae>
 8000ccc:	2306      	movs	r3, #6
 8000cce:	e01c      	b.n	8000d0a <GPIO_Init+0x1ae>
 8000cd0:	2305      	movs	r3, #5
 8000cd2:	e01a      	b.n	8000d0a <GPIO_Init+0x1ae>
 8000cd4:	2304      	movs	r3, #4
 8000cd6:	e018      	b.n	8000d0a <GPIO_Init+0x1ae>
 8000cd8:	2303      	movs	r3, #3
 8000cda:	e016      	b.n	8000d0a <GPIO_Init+0x1ae>
 8000cdc:	2302      	movs	r3, #2
 8000cde:	e014      	b.n	8000d0a <GPIO_Init+0x1ae>
 8000ce0:	2301      	movs	r3, #1
 8000ce2:	e012      	b.n	8000d0a <GPIO_Init+0x1ae>
 8000ce4:	40013c00 	.word	0x40013c00
 8000ce8:	40020000 	.word	0x40020000
 8000cec:	40020400 	.word	0x40020400
 8000cf0:	40020800 	.word	0x40020800
 8000cf4:	40020c00 	.word	0x40020c00
 8000cf8:	40021000 	.word	0x40021000
 8000cfc:	40021800 	.word	0x40021800
 8000d00:	40021c00 	.word	0x40021c00
 8000d04:	40022000 	.word	0x40022000
 8000d08:	2300      	movs	r3, #0
 8000d0a:	747b      	strb	r3, [r7, #17]
		SYSCFG_PCLK_EN();
 8000d0c:	4b68      	ldr	r3, [pc, #416]	@ (8000eb0 <GPIO_Init+0x354>)
 8000d0e:	6c5b      	ldr	r3, [r3, #68]	@ 0x44
 8000d10:	4a67      	ldr	r2, [pc, #412]	@ (8000eb0 <GPIO_Init+0x354>)
 8000d12:	f443 4380 	orr.w	r3, r3, #16384	@ 0x4000
 8000d16:	6453      	str	r3, [r2, #68]	@ 0x44
		SYSCFG->EXTICR[temp1]|= (portcode << (temp2*4));
 8000d18:	4a66      	ldr	r2, [pc, #408]	@ (8000eb4 <GPIO_Init+0x358>)
 8000d1a:	7cfb      	ldrb	r3, [r7, #19]
 8000d1c:	3302      	adds	r3, #2
 8000d1e:	f852 2023 	ldr.w	r2, [r2, r3, lsl #2]
 8000d22:	7c79      	ldrb	r1, [r7, #17]
 8000d24:	7cbb      	ldrb	r3, [r7, #18]
 8000d26:	009b      	lsls	r3, r3, #2
 8000d28:	fa01 f303 	lsl.w	r3, r1, r3
 8000d2c:	4618      	mov	r0, r3
 8000d2e:	4961      	ldr	r1, [pc, #388]	@ (8000eb4 <GPIO_Init+0x358>)
 8000d30:	7cfb      	ldrb	r3, [r7, #19]
 8000d32:	4302      	orrs	r2, r0
 8000d34:	3302      	adds	r3, #2
 8000d36:	f841 2023 	str.w	r2, [r1, r3, lsl #2]



		//3.  enable the EXTI interrupt Delivery using Interrupt mask register
        // enable that EXTI line  to deliver the interrupt from MCU side
		EXTI->IMR=(1 << pGPIOHandle->GPIO_PinConfig.GPIO_PinNumber);
 8000d3a:	687b      	ldr	r3, [r7, #4]
 8000d3c:	791b      	ldrb	r3, [r3, #4]
 8000d3e:	461a      	mov	r2, r3
 8000d40:	2301      	movs	r3, #1
 8000d42:	fa03 f202 	lsl.w	r2, r3, r2
 8000d46:	4b5c      	ldr	r3, [pc, #368]	@ (8000eb8 <GPIO_Init+0x35c>)
 8000d48:	601a      	str	r2, [r3, #0]

	}

	//2. configure the speed
	temp=0;
 8000d4a:	2300      	movs	r3, #0
 8000d4c:	617b      	str	r3, [r7, #20]
	temp = (pGPIOHandle->GPIO_PinConfig.GPIO_PinSpeed << (2 * pGPIOHandle->GPIO_PinConfig.GPIO_PinNumber));
 8000d4e:	687b      	ldr	r3, [r7, #4]
 8000d50:	799b      	ldrb	r3, [r3, #6]
 8000d52:	461a      	mov	r2, r3
 8000d54:	687b      	ldr	r3, [r7, #4]
 8000d56:	791b      	ldrb	r3, [r3, #4]
 8000d58:	005b      	lsls	r3, r3, #1
 8000d5a:	fa02 f303 	lsl.w	r3, r2, r3
 8000d5e:	617b      	str	r3, [r7, #20]
	pGPIOHandle->pGPIOx->OSPEEDR &=(~(0x3 <<(2 * pGPIOHandle->GPIO_PinConfig.GPIO_PinNumber)));
 8000d60:	687b      	ldr	r3, [r7, #4]
 8000d62:	681b      	ldr	r3, [r3, #0]
 8000d64:	689a      	ldr	r2, [r3, #8]
 8000d66:	687b      	ldr	r3, [r7, #4]
 8000d68:	791b      	ldrb	r3, [r3, #4]
 8000d6a:	005b      	lsls	r3, r3, #1
 8000d6c:	2103      	movs	r1, #3
 8000d6e:	fa01 f303 	lsl.w	r3, r1, r3
 8000d72:	43db      	mvns	r3, r3
 8000d74:	4619      	mov	r1, r3
 8000d76:	687b      	ldr	r3, [r7, #4]
 8000d78:	681b      	ldr	r3, [r3, #0]
 8000d7a:	400a      	ands	r2, r1
 8000d7c:	609a      	str	r2, [r3, #8]
	pGPIOHandle->pGPIOx->OSPEEDR |= temp;
 8000d7e:	687b      	ldr	r3, [r7, #4]
 8000d80:	681b      	ldr	r3, [r3, #0]
 8000d82:	6899      	ldr	r1, [r3, #8]
 8000d84:	687b      	ldr	r3, [r7, #4]
 8000d86:	681b      	ldr	r3, [r3, #0]
 8000d88:	697a      	ldr	r2, [r7, #20]
 8000d8a:	430a      	orrs	r2, r1
 8000d8c:	609a      	str	r2, [r3, #8]

	//3. configure the pupd settings
	temp=0;
 8000d8e:	2300      	movs	r3, #0
 8000d90:	617b      	str	r3, [r7, #20]
	temp = (pGPIOHandle->GPIO_PinConfig.GPIO_PinPuPdControl << (2 * pGPIOHandle->GPIO_PinConfig.GPIO_PinNumber));
 8000d92:	687b      	ldr	r3, [r7, #4]
 8000d94:	79db      	ldrb	r3, [r3, #7]
 8000d96:	461a      	mov	r2, r3
 8000d98:	687b      	ldr	r3, [r7, #4]
 8000d9a:	791b      	ldrb	r3, [r3, #4]
 8000d9c:	005b      	lsls	r3, r3, #1
 8000d9e:	fa02 f303 	lsl.w	r3, r2, r3
 8000da2:	617b      	str	r3, [r7, #20]
	pGPIOHandle->pGPIOx->PUPDR &=(~(0x3 <<(2 * pGPIOHandle->GPIO_PinConfig.GPIO_PinNumber)));
 8000da4:	687b      	ldr	r3, [r7, #4]
 8000da6:	681b      	ldr	r3, [r3, #0]
 8000da8:	68da      	ldr	r2, [r3, #12]
 8000daa:	687b      	ldr	r3, [r7, #4]
 8000dac:	791b      	ldrb	r3, [r3, #4]
 8000dae:	005b      	lsls	r3, r3, #1
 8000db0:	2103      	movs	r1, #3
 8000db2:	fa01 f303 	lsl.w	r3, r1, r3
 8000db6:	43db      	mvns	r3, r3
 8000db8:	4619      	mov	r1, r3
 8000dba:	687b      	ldr	r3, [r7, #4]
 8000dbc:	681b      	ldr	r3, [r3, #0]
 8000dbe:	400a      	ands	r2, r1
 8000dc0:	60da      	str	r2, [r3, #12]
	pGPIOHandle->pGPIOx->PUPDR |= temp;
 8000dc2:	687b      	ldr	r3, [r7, #4]
 8000dc4:	681b      	ldr	r3, [r3, #0]
 8000dc6:	68d9      	ldr	r1, [r3, #12]
 8000dc8:	687b      	ldr	r3, [r7, #4]
 8000dca:	681b      	ldr	r3, [r3, #0]
 8000dcc:	697a      	ldr	r2, [r7, #20]
 8000dce:	430a      	orrs	r2, r1
 8000dd0:	60da      	str	r2, [r3, #12]
	//4. configure the optype
	// this code should be configured only if the mode is in OUTPUT Mode
	// Need to add checks for this code
	temp=0;
 8000dd2:	2300      	movs	r3, #0
 8000dd4:	617b      	str	r3, [r7, #20]
	temp = (pGPIOHandle->GPIO_PinConfig.GPIO_PinOPType <<  pGPIOHandle->GPIO_PinConfig.GPIO_PinNumber);
 8000dd6:	687b      	ldr	r3, [r7, #4]
 8000dd8:	7a1b      	ldrb	r3, [r3, #8]
 8000dda:	461a      	mov	r2, r3
 8000ddc:	687b      	ldr	r3, [r7, #4]
 8000dde:	791b      	ldrb	r3, [r3, #4]
 8000de0:	fa02 f303 	lsl.w	r3, r2, r3
 8000de4:	617b      	str	r3, [r7, #20]
	pGPIOHandle->pGPIOx->OTYPER &=(~(0x1 <<(pGPIOHandle->GPIO_PinConfig.GPIO_PinNumber)));
 8000de6:	687b      	ldr	r3, [r7, #4]
 8000de8:	681b      	ldr	r3, [r3, #0]
 8000dea:	685a      	ldr	r2, [r3, #4]
 8000dec:	687b      	ldr	r3, [r7, #4]
 8000dee:	791b      	ldrb	r3, [r3, #4]
 8000df0:	4619      	mov	r1, r3
 8000df2:	2301      	movs	r3, #1
 8000df4:	408b      	lsls	r3, r1
 8000df6:	43db      	mvns	r3, r3
 8000df8:	4619      	mov	r1, r3
 8000dfa:	687b      	ldr	r3, [r7, #4]
 8000dfc:	681b      	ldr	r3, [r3, #0]
 8000dfe:	400a      	ands	r2, r1
 8000e00:	605a      	str	r2, [r3, #4]
	pGPIOHandle->pGPIOx->OTYPER |= temp;
 8000e02:	687b      	ldr	r3, [r7, #4]
 8000e04:	681b      	ldr	r3, [r3, #0]
 8000e06:	6859      	ldr	r1, [r3, #4]
 8000e08:	687b      	ldr	r3, [r7, #4]
 8000e0a:	681b      	ldr	r3, [r3, #0]
 8000e0c:	697a      	ldr	r2, [r7, #20]
 8000e0e:	430a      	orrs	r2, r1
 8000e10:	605a      	str	r2, [r3, #4]

	//5. configure the altfn
	if(pGPIOHandle->GPIO_PinConfig.GPIO_PinMode == GPIO_MODE_ALTFN)
 8000e12:	687b      	ldr	r3, [r7, #4]
 8000e14:	795b      	ldrb	r3, [r3, #5]
 8000e16:	2b02      	cmp	r3, #2
 8000e18:	d146      	bne.n	8000ea8 <GPIO_Init+0x34c>
	{
			// configure the altfn registers
		uint8_t temp1,temp2;

		temp1 = pGPIOHandle->GPIO_PinConfig.GPIO_PinNumber /8;
 8000e1a:	687b      	ldr	r3, [r7, #4]
 8000e1c:	791b      	ldrb	r3, [r3, #4]
 8000e1e:	08db      	lsrs	r3, r3, #3
 8000e20:	743b      	strb	r3, [r7, #16]
		temp2 = pGPIOHandle->GPIO_PinConfig.GPIO_PinNumber %8;
 8000e22:	687b      	ldr	r3, [r7, #4]
 8000e24:	791b      	ldrb	r3, [r3, #4]
 8000e26:	f003 0307 	and.w	r3, r3, #7
 8000e2a:	73fb      	strb	r3, [r7, #15]

		if(temp1 ==0){
 8000e2c:	7c3b      	ldrb	r3, [r7, #16]
 8000e2e:	2b00      	cmp	r3, #0
 8000e30:	d11d      	bne.n	8000e6e <GPIO_Init+0x312>
			pGPIOHandle->pGPIOx->AFRL &=~(0xF << (4 * temp2));
 8000e32:	687b      	ldr	r3, [r7, #4]
 8000e34:	681b      	ldr	r3, [r3, #0]
 8000e36:	6a1a      	ldr	r2, [r3, #32]
 8000e38:	7bfb      	ldrb	r3, [r7, #15]
 8000e3a:	009b      	lsls	r3, r3, #2
 8000e3c:	210f      	movs	r1, #15
 8000e3e:	fa01 f303 	lsl.w	r3, r1, r3
 8000e42:	43db      	mvns	r3, r3
 8000e44:	4619      	mov	r1, r3
 8000e46:	687b      	ldr	r3, [r7, #4]
 8000e48:	681b      	ldr	r3, [r3, #0]
 8000e4a:	400a      	ands	r2, r1
 8000e4c:	621a      	str	r2, [r3, #32]
			pGPIOHandle->pGPIOx->AFRL |= (pGPIOHandle->GPIO_PinConfig.GPIO_PinAltFunMode << (4 * temp2));
 8000e4e:	687b      	ldr	r3, [r7, #4]
 8000e50:	681b      	ldr	r3, [r3, #0]
 8000e52:	6a1a      	ldr	r2, [r3, #32]
 8000e54:	687b      	ldr	r3, [r7, #4]
 8000e56:	7a5b      	ldrb	r3, [r3, #9]
 8000e58:	4619      	mov	r1, r3
 8000e5a:	7bfb      	ldrb	r3, [r7, #15]
 8000e5c:	009b      	lsls	r3, r3, #2
 8000e5e:	fa01 f303 	lsl.w	r3, r1, r3
 8000e62:	4619      	mov	r1, r3
 8000e64:	687b      	ldr	r3, [r7, #4]
 8000e66:	681b      	ldr	r3, [r3, #0]
 8000e68:	430a      	orrs	r2, r1
 8000e6a:	621a      	str	r2, [r3, #32]
		}


	}

}
 8000e6c:	e01c      	b.n	8000ea8 <GPIO_Init+0x34c>
			pGPIOHandle->pGPIOx->AFRH &=~(0xF<< (4 * temp2));
 8000e6e:	687b      	ldr	r3, [r7, #4]
 8000e70:	681b      	ldr	r3, [r3, #0]
 8000e72:	6a5a      	ldr	r2, [r3, #36]	@ 0x24
 8000e74:	7bfb      	ldrb	r3, [r7, #15]
 8000e76:	009b      	lsls	r3, r3, #2
 8000e78:	210f      	movs	r1, #15
 8000e7a:	fa01 f303 	lsl.w	r3, r1, r3
 8000e7e:	43db      	mvns	r3, r3
 8000e80:	4619      	mov	r1, r3
 8000e82:	687b      	ldr	r3, [r7, #4]
 8000e84:	681b      	ldr	r3, [r3, #0]
 8000e86:	400a      	ands	r2, r1
 8000e88:	625a      	str	r2, [r3, #36]	@ 0x24
			pGPIOHandle->pGPIOx->AFRH |= (pGPIOHandle->GPIO_PinConfig.GPIO_PinAltFunMode << (4 * temp2));
 8000e8a:	687b      	ldr	r3, [r7, #4]
 8000e8c:	681b      	ldr	r3, [r3, #0]
 8000e8e:	6a5a      	ldr	r2, [r3, #36]	@ 0x24
 8000e90:	687b      	ldr	r3, [r7, #4]
 8000e92:	7a5b      	ldrb	r3, [r3, #9]
 8000e94:	4619      	mov	r1, r3
 8000e96:	7bfb      	ldrb	r3, [r7, #15]
 8000e98:	009b      	lsls	r3, r3, #2
 8000e9a:	fa01 f303 	lsl.w	r3, r1, r3
 8000e9e:	4619      	mov	r1, r3
 8000ea0:	687b      	ldr	r3, [r7, #4]
 8000ea2:	681b      	ldr	r3, [r3, #0]
 8000ea4:	430a      	orrs	r2, r1
 8000ea6:	625a      	str	r2, [r3, #36]	@ 0x24
}
 8000ea8:	bf00      	nop
 8000eaa:	3718      	adds	r7, #24
 8000eac:	46bd      	mov	sp, r7
 8000eae:	bd80      	pop	{r7, pc}
 8000eb0:	40023800 	.word	0x40023800
 8000eb4:	40013800 	.word	0x40013800
 8000eb8:	40013c00 	.word	0x40013c00

08000ebc <GPIO_PeripheralClockControl>:

void GPIO_PeripheralClockControl(GPIO_RegDef_t *pGPIOx,uint8_t EnorDi){
 8000ebc:	b480      	push	{r7}
 8000ebe:	b083      	sub	sp, #12
 8000ec0:	af00      	add	r7, sp, #0
 8000ec2:	6078      	str	r0, [r7, #4]
 8000ec4:	460b      	mov	r3, r1
 8000ec6:	70fb      	strb	r3, [r7, #3]

	if(EnorDi == ENABLE){
 8000ec8:	78fb      	ldrb	r3, [r7, #3]
 8000eca:	2b01      	cmp	r3, #1
 8000ecc:	d162      	bne.n	8000f94 <GPIO_PeripheralClockControl+0xd8>
		// check *pGIOx is pointing to which GPIO peripheral
		if(pGPIOx == GPIOA){
 8000ece:	687b      	ldr	r3, [r7, #4]
 8000ed0:	4a64      	ldr	r2, [pc, #400]	@ (8001064 <GPIO_PeripheralClockControl+0x1a8>)
 8000ed2:	4293      	cmp	r3, r2
 8000ed4:	d106      	bne.n	8000ee4 <GPIO_PeripheralClockControl+0x28>
			GPIOA_PCLK_EN();
 8000ed6:	4b64      	ldr	r3, [pc, #400]	@ (8001068 <GPIO_PeripheralClockControl+0x1ac>)
 8000ed8:	6b1b      	ldr	r3, [r3, #48]	@ 0x30
 8000eda:	4a63      	ldr	r2, [pc, #396]	@ (8001068 <GPIO_PeripheralClockControl+0x1ac>)
 8000edc:	f043 0301 	orr.w	r3, r3, #1
 8000ee0:	6313      	str	r3, [r2, #48]	@ 0x30
				}

	}


}
 8000ee2:	e0b9      	b.n	8001058 <GPIO_PeripheralClockControl+0x19c>
		else if(pGPIOx == GPIOB){
 8000ee4:	687b      	ldr	r3, [r7, #4]
 8000ee6:	4a61      	ldr	r2, [pc, #388]	@ (800106c <GPIO_PeripheralClockControl+0x1b0>)
 8000ee8:	4293      	cmp	r3, r2
 8000eea:	d106      	bne.n	8000efa <GPIO_PeripheralClockControl+0x3e>
			GPIOB_PCLK_EN();
 8000eec:	4b5e      	ldr	r3, [pc, #376]	@ (8001068 <GPIO_PeripheralClockControl+0x1ac>)
 8000eee:	6b1b      	ldr	r3, [r3, #48]	@ 0x30
 8000ef0:	4a5d      	ldr	r2, [pc, #372]	@ (8001068 <GPIO_PeripheralClockControl+0x1ac>)
 8000ef2:	f043 0302 	orr.w	r3, r3, #2
 8000ef6:	6313      	str	r3, [r2, #48]	@ 0x30
}
 8000ef8:	e0ae      	b.n	8001058 <GPIO_PeripheralClockControl+0x19c>
		else if(pGPIOx == GPIOC){
 8000efa:	687b      	ldr	r3, [r7, #4]
 8000efc:	4a5c      	ldr	r2, [pc, #368]	@ (8001070 <GPIO_PeripheralClockControl+0x1b4>)
 8000efe:	4293      	cmp	r3, r2
 8000f00:	d106      	bne.n	8000f10 <GPIO_PeripheralClockControl+0x54>
			GPIOC_PCLK_EN();
 8000f02:	4b59      	ldr	r3, [pc, #356]	@ (8001068 <GPIO_PeripheralClockControl+0x1ac>)
 8000f04:	6b1b      	ldr	r3, [r3, #48]	@ 0x30
 8000f06:	4a58      	ldr	r2, [pc, #352]	@ (8001068 <GPIO_PeripheralClockControl+0x1ac>)
 8000f08:	f043 0304 	orr.w	r3, r3, #4
 8000f0c:	6313      	str	r3, [r2, #48]	@ 0x30
}
 8000f0e:	e0a3      	b.n	8001058 <GPIO_PeripheralClockControl+0x19c>
		else if(pGPIOx == GPIOD){
 8000f10:	687b      	ldr	r3, [r7, #4]
 8000f12:	4a58      	ldr	r2, [pc, #352]	@ (8001074 <GPIO_PeripheralClockControl+0x1b8>)
 8000f14:	4293      	cmp	r3, r2
 8000f16:	d106      	bne.n	8000f26 <GPIO_PeripheralClockControl+0x6a>
			GPIOD_PCLK_EN();
 8000f18:	4b53      	ldr	r3, [pc, #332]	@ (8001068 <GPIO_PeripheralClockControl+0x1ac>)
 8000f1a:	6b1b      	ldr	r3, [r3, #48]	@ 0x30
 8000f1c:	4a52      	ldr	r2, [pc, #328]	@ (8001068 <GPIO_PeripheralClockControl+0x1ac>)
 8000f1e:	f043 0308 	orr.w	r3, r3, #8
 8000f22:	6313      	str	r3, [r2, #48]	@ 0x30
}
 8000f24:	e098      	b.n	8001058 <GPIO_PeripheralClockControl+0x19c>
		else if(pGPIOx == GPIOE){
 8000f26:	687b      	ldr	r3, [r7, #4]
 8000f28:	4a53      	ldr	r2, [pc, #332]	@ (8001078 <GPIO_PeripheralClockControl+0x1bc>)
 8000f2a:	4293      	cmp	r3, r2
 8000f2c:	d106      	bne.n	8000f3c <GPIO_PeripheralClockControl+0x80>
			GPIOE_PCLK_EN();
 8000f2e:	4b4e      	ldr	r3, [pc, #312]	@ (8001068 <GPIO_PeripheralClockControl+0x1ac>)
 8000f30:	6b1b      	ldr	r3, [r3, #48]	@ 0x30
 8000f32:	4a4d      	ldr	r2, [pc, #308]	@ (8001068 <GPIO_PeripheralClockControl+0x1ac>)
 8000f34:	f043 0310 	orr.w	r3, r3, #16
 8000f38:	6313      	str	r3, [r2, #48]	@ 0x30
}
 8000f3a:	e08d      	b.n	8001058 <GPIO_PeripheralClockControl+0x19c>
		else if(pGPIOx == GPIOF){
 8000f3c:	687b      	ldr	r3, [r7, #4]
 8000f3e:	4a4f      	ldr	r2, [pc, #316]	@ (800107c <GPIO_PeripheralClockControl+0x1c0>)
 8000f40:	4293      	cmp	r3, r2
 8000f42:	d106      	bne.n	8000f52 <GPIO_PeripheralClockControl+0x96>
			GPIOF_PCLK_EN();
 8000f44:	4b48      	ldr	r3, [pc, #288]	@ (8001068 <GPIO_PeripheralClockControl+0x1ac>)
 8000f46:	6b1b      	ldr	r3, [r3, #48]	@ 0x30
 8000f48:	4a47      	ldr	r2, [pc, #284]	@ (8001068 <GPIO_PeripheralClockControl+0x1ac>)
 8000f4a:	f043 0320 	orr.w	r3, r3, #32
 8000f4e:	6313      	str	r3, [r2, #48]	@ 0x30
}
 8000f50:	e082      	b.n	8001058 <GPIO_PeripheralClockControl+0x19c>
		else if(pGPIOx == GPIOG){
 8000f52:	687b      	ldr	r3, [r7, #4]
 8000f54:	4a4a      	ldr	r2, [pc, #296]	@ (8001080 <GPIO_PeripheralClockControl+0x1c4>)
 8000f56:	4293      	cmp	r3, r2
 8000f58:	d106      	bne.n	8000f68 <GPIO_PeripheralClockControl+0xac>
			GPIOG_PCLK_EN();
 8000f5a:	4b43      	ldr	r3, [pc, #268]	@ (8001068 <GPIO_PeripheralClockControl+0x1ac>)
 8000f5c:	6b1b      	ldr	r3, [r3, #48]	@ 0x30
 8000f5e:	4a42      	ldr	r2, [pc, #264]	@ (8001068 <GPIO_PeripheralClockControl+0x1ac>)
 8000f60:	f043 0340 	orr.w	r3, r3, #64	@ 0x40
 8000f64:	6313      	str	r3, [r2, #48]	@ 0x30
}
 8000f66:	e077      	b.n	8001058 <GPIO_PeripheralClockControl+0x19c>
		else if(pGPIOx == GPIOH){
 8000f68:	687b      	ldr	r3, [r7, #4]
 8000f6a:	4a46      	ldr	r2, [pc, #280]	@ (8001084 <GPIO_PeripheralClockControl+0x1c8>)
 8000f6c:	4293      	cmp	r3, r2
 8000f6e:	d106      	bne.n	8000f7e <GPIO_PeripheralClockControl+0xc2>
			GPIOH_PCLK_EN();
 8000f70:	4b3d      	ldr	r3, [pc, #244]	@ (8001068 <GPIO_PeripheralClockControl+0x1ac>)
 8000f72:	6b1b      	ldr	r3, [r3, #48]	@ 0x30
 8000f74:	4a3c      	ldr	r2, [pc, #240]	@ (8001068 <GPIO_PeripheralClockControl+0x1ac>)
 8000f76:	f043 0380 	orr.w	r3, r3, #128	@ 0x80
 8000f7a:	6313      	str	r3, [r2, #48]	@ 0x30
}
 8000f7c:	e06c      	b.n	8001058 <GPIO_PeripheralClockControl+0x19c>
		else if(pGPIOx == GPIOI){
 8000f7e:	687b      	ldr	r3, [r7, #4]
 8000f80:	4a41      	ldr	r2, [pc, #260]	@ (8001088 <GPIO_PeripheralClockControl+0x1cc>)
 8000f82:	4293      	cmp	r3, r2
 8000f84:	d168      	bne.n	8001058 <GPIO_PeripheralClockControl+0x19c>
			GPIOI_PCLK_EN();
 8000f86:	4b38      	ldr	r3, [pc, #224]	@ (8001068 <GPIO_PeripheralClockControl+0x1ac>)
 8000f88:	6b1b      	ldr	r3, [r3, #48]	@ 0x30
 8000f8a:	4a37      	ldr	r2, [pc, #220]	@ (8001068 <GPIO_PeripheralClockControl+0x1ac>)
 8000f8c:	f443 7380 	orr.w	r3, r3, #256	@ 0x100
 8000f90:	6313      	str	r3, [r2, #48]	@ 0x30
}
 8000f92:	e061      	b.n	8001058 <GPIO_PeripheralClockControl+0x19c>
				if(pGPIOx == GPIOA){
 8000f94:	687b      	ldr	r3, [r7, #4]
 8000f96:	4a33      	ldr	r2, [pc, #204]	@ (8001064 <GPIO_PeripheralClockControl+0x1a8>)
 8000f98:	4293      	cmp	r3, r2
 8000f9a:	d106      	bne.n	8000faa <GPIO_PeripheralClockControl+0xee>
					GPIOA_PCLK_DI();
 8000f9c:	4b32      	ldr	r3, [pc, #200]	@ (8001068 <GPIO_PeripheralClockControl+0x1ac>)
 8000f9e:	6b1b      	ldr	r3, [r3, #48]	@ 0x30
 8000fa0:	4a31      	ldr	r2, [pc, #196]	@ (8001068 <GPIO_PeripheralClockControl+0x1ac>)
 8000fa2:	f023 0301 	bic.w	r3, r3, #1
 8000fa6:	6313      	str	r3, [r2, #48]	@ 0x30
}
 8000fa8:	e056      	b.n	8001058 <GPIO_PeripheralClockControl+0x19c>
				else if(pGPIOx == GPIOB){
 8000faa:	687b      	ldr	r3, [r7, #4]
 8000fac:	4a2f      	ldr	r2, [pc, #188]	@ (800106c <GPIO_PeripheralClockControl+0x1b0>)
 8000fae:	4293      	cmp	r3, r2
 8000fb0:	d106      	bne.n	8000fc0 <GPIO_PeripheralClockControl+0x104>
					GPIOB_PCLK_DI();
 8000fb2:	4b2d      	ldr	r3, [pc, #180]	@ (8001068 <GPIO_PeripheralClockControl+0x1ac>)
 8000fb4:	6b1b      	ldr	r3, [r3, #48]	@ 0x30
 8000fb6:	4a2c      	ldr	r2, [pc, #176]	@ (8001068 <GPIO_PeripheralClockControl+0x1ac>)
 8000fb8:	f023 0302 	bic.w	r3, r3, #2
 8000fbc:	6313      	str	r3, [r2, #48]	@ 0x30
}
 8000fbe:	e04b      	b.n	8001058 <GPIO_PeripheralClockControl+0x19c>
				else if(pGPIOx == GPIOC){
 8000fc0:	687b      	ldr	r3, [r7, #4]
 8000fc2:	4a2b      	ldr	r2, [pc, #172]	@ (8001070 <GPIO_PeripheralClockControl+0x1b4>)
 8000fc4:	4293      	cmp	r3, r2
 8000fc6:	d106      	bne.n	8000fd6 <GPIO_PeripheralClockControl+0x11a>
					GPIOC_PCLK_DI();
 8000fc8:	4b27      	ldr	r3, [pc, #156]	@ (8001068 <GPIO_PeripheralClockControl+0x1ac>)
 8000fca:	6b1b      	ldr	r3, [r3, #48]	@ 0x30
 8000fcc:	4a26      	ldr	r2, [pc, #152]	@ (8001068 <GPIO_PeripheralClockControl+0x1ac>)
 8000fce:	f023 0304 	bic.w	r3, r3, #4
 8000fd2:	6313      	str	r3, [r2, #48]	@ 0x30
}
 8000fd4:	e040      	b.n	8001058 <GPIO_PeripheralClockControl+0x19c>
				else if(pGPIOx == GPIOD){
 8000fd6:	687b      	ldr	r3, [r7, #4]
 8000fd8:	4a26      	ldr	r2, [pc, #152]	@ (8001074 <GPIO_PeripheralClockControl+0x1b8>)
 8000fda:	4293      	cmp	r3, r2
 8000fdc:	d106      	bne.n	8000fec <GPIO_PeripheralClockControl+0x130>
					GPIOD_PCLK_DI();
 8000fde:	4b22      	ldr	r3, [pc, #136]	@ (8001068 <GPIO_PeripheralClockControl+0x1ac>)
 8000fe0:	6b1b      	ldr	r3, [r3, #48]	@ 0x30
 8000fe2:	4a21      	ldr	r2, [pc, #132]	@ (8001068 <GPIO_PeripheralClockControl+0x1ac>)
 8000fe4:	f023 0308 	bic.w	r3, r3, #8
 8000fe8:	6313      	str	r3, [r2, #48]	@ 0x30
}
 8000fea:	e035      	b.n	8001058 <GPIO_PeripheralClockControl+0x19c>
				else if(pGPIOx == GPIOE){
 8000fec:	687b      	ldr	r3, [r7, #4]
 8000fee:	4a22      	ldr	r2, [pc, #136]	@ (8001078 <GPIO_PeripheralClockControl+0x1bc>)
 8000ff0:	4293      	cmp	r3, r2
 8000ff2:	d106      	bne.n	8001002 <GPIO_PeripheralClockControl+0x146>
					GPIOE_PCLK_DI();
 8000ff4:	4b1c      	ldr	r3, [pc, #112]	@ (8001068 <GPIO_PeripheralClockControl+0x1ac>)
 8000ff6:	6b1b      	ldr	r3, [r3, #48]	@ 0x30
 8000ff8:	4a1b      	ldr	r2, [pc, #108]	@ (8001068 <GPIO_PeripheralClockControl+0x1ac>)
 8000ffa:	f023 0310 	bic.w	r3, r3, #16
 8000ffe:	6313      	str	r3, [r2, #48]	@ 0x30
}
 8001000:	e02a      	b.n	8001058 <GPIO_PeripheralClockControl+0x19c>
				else if(pGPIOx == GPIOF){
 8001002:	687b      	ldr	r3, [r7, #4]
 8001004:	4a1d      	ldr	r2, [pc, #116]	@ (800107c <GPIO_PeripheralClockControl+0x1c0>)
 8001006:	4293      	cmp	r3, r2
 8001008:	d106      	bne.n	8001018 <GPIO_PeripheralClockControl+0x15c>
					GPIOF_PCLK_DI();
 800100a:	4b17      	ldr	r3, [pc, #92]	@ (8001068 <GPIO_PeripheralClockControl+0x1ac>)
 800100c:	6b1b      	ldr	r3, [r3, #48]	@ 0x30
 800100e:	4a16      	ldr	r2, [pc, #88]	@ (8001068 <GPIO_PeripheralClockControl+0x1ac>)
 8001010:	f023 0320 	bic.w	r3, r3, #32
 8001014:	6313      	str	r3, [r2, #48]	@ 0x30
}
 8001016:	e01f      	b.n	8001058 <GPIO_PeripheralClockControl+0x19c>
				else if(pGPIOx == GPIOG){
 8001018:	687b      	ldr	r3, [r7, #4]
 800101a:	4a19      	ldr	r2, [pc, #100]	@ (8001080 <GPIO_PeripheralClockControl+0x1c4>)
 800101c:	4293      	cmp	r3, r2
 800101e:	d106      	bne.n	800102e <GPIO_PeripheralClockControl+0x172>
					GPIOG_PCLK_DI();
 8001020:	4b11      	ldr	r3, [pc, #68]	@ (8001068 <GPIO_PeripheralClockControl+0x1ac>)
 8001022:	6b1b      	ldr	r3, [r3, #48]	@ 0x30
 8001024:	4a10      	ldr	r2, [pc, #64]	@ (8001068 <GPIO_PeripheralClockControl+0x1ac>)
 8001026:	f023 0340 	bic.w	r3, r3, #64	@ 0x40
 800102a:	6313      	str	r3, [r2, #48]	@ 0x30
}
 800102c:	e014      	b.n	8001058 <GPIO_PeripheralClockControl+0x19c>
				else if(pGPIOx == GPIOH){
 800102e:	687b      	ldr	r3, [r7, #4]
 8001030:	4a14      	ldr	r2, [pc, #80]	@ (8001084 <GPIO_PeripheralClockControl+0x1c8>)
 8001032:	4293      	cmp	r3, r2
 8001034:	d106      	bne.n	8001044 <GPIO_PeripheralClockControl+0x188>
					GPIOH_PCLK_DI();
 8001036:	4b0c      	ldr	r3, [pc, #48]	@ (8001068 <GPIO_PeripheralClockControl+0x1ac>)
 8001038:	6b1b      	ldr	r3, [r3, #48]	@ 0x30
 800103a:	4a0b      	ldr	r2, [pc, #44]	@ (8001068 <GPIO_PeripheralClockControl+0x1ac>)
 800103c:	f023 0380 	bic.w	r3, r3, #128	@ 0x80
 8001040:	6313      	str	r3, [r2, #48]	@ 0x30
}
 8001042:	e009      	b.n	8001058 <GPIO_PeripheralClockControl+0x19c>
				else if(pGPIOx == GPIOI){
 8001044:	687b      	ldr	r3, [r7, #4]
 8001046:	4a10      	ldr	r2, [pc, #64]	@ (8001088 <GPIO_PeripheralClockControl+0x1cc>)
 8001048:	4293      	cmp	r3, r2
 800104a:	d105      	bne.n	8001058 <GPIO_PeripheralClockControl+0x19c>
					GPIOI_PCLK_DI();
 800104c:	4b06      	ldr	r3, [pc, #24]	@ (8001068 <GPIO_PeripheralClockControl+0x1ac>)
 800104e:	6b1b      	ldr	r3, [r3, #48]	@ 0x30
 8001050:	4a05      	ldr	r2, [pc, #20]	@ (8001068 <GPIO_PeripheralClockControl+0x1ac>)
 8001052:	f423 7380 	bic.w	r3, r3, #256	@ 0x100
 8001056:	6313      	str	r3, [r2, #48]	@ 0x30
}
 8001058:	bf00      	nop
 800105a:	370c      	adds	r7, #12
 800105c:	46bd      	mov	sp, r7
 800105e:	bc80      	pop	{r7}
 8001060:	4770      	bx	lr
 8001062:	bf00      	nop
 8001064:	40020000 	.word	0x40020000
 8001068:	40023800 	.word	0x40023800
 800106c:	40020400 	.word	0x40020400
 8001070:	40020800 	.word	0x40020800
 8001074:	40020c00 	.word	0x40020c00
 8001078:	40021000 	.word	0x40021000
 800107c:	40021400 	.word	0x40021400
 8001080:	40021800 	.word	0x40021800
 8001084:	40021c00 	.word	0x40021c00
 8001088:	40022000 	.word	0x40022000

0800108c <I2C_GenerateStartCondition>:


}

static void I2C_GenerateStartCondition(I2C_RegDef_t *pI2Cx)
{
 800108c:	b480      	push	{r7}
 800108e:	b083      	sub	sp, #12
 8001090:	af00      	add	r7, sp, #0
 8001092:	6078      	str	r0, [r7, #4]
	pI2Cx->I2C_CR1  |= (1 << I2C_CR1_START);
 8001094:	687b      	ldr	r3, [r7, #4]
 8001096:	681b      	ldr	r3, [r3, #0]
 8001098:	f443 7280 	orr.w	r2, r3, #256	@ 0x100
 800109c:	687b      	ldr	r3, [r7, #4]
 800109e:	601a      	str	r2, [r3, #0]

}
 80010a0:	bf00      	nop
 80010a2:	370c      	adds	r7, #12
 80010a4:	46bd      	mov	sp, r7
 80010a6:	bc80      	pop	{r7}
 80010a8:	4770      	bx	lr

080010aa <I2C_ExecuteAddressPhaseWrite>:
static void I2C_ExecuteAddressPhaseWrite(I2C_RegDef_t *pI2Cx,uint8_t SlaveAddr){
 80010aa:	b480      	push	{r7}
 80010ac:	b083      	sub	sp, #12
 80010ae:	af00      	add	r7, sp, #0
 80010b0:	6078      	str	r0, [r7, #4]
 80010b2:	460b      	mov	r3, r1
 80010b4:	70fb      	strb	r3, [r7, #3]
		SlaveAddr=SlaveAddr << 1;
 80010b6:	78fb      	ldrb	r3, [r7, #3]
 80010b8:	005b      	lsls	r3, r3, #1
 80010ba:	70fb      	strb	r3, [r7, #3]
		SlaveAddr &=~(1);
 80010bc:	78fb      	ldrb	r3, [r7, #3]
 80010be:	f023 0301 	bic.w	r3, r3, #1
 80010c2:	70fb      	strb	r3, [r7, #3]
		pI2Cx->I2C_DR =SlaveAddr;
 80010c4:	78fa      	ldrb	r2, [r7, #3]
 80010c6:	687b      	ldr	r3, [r7, #4]
 80010c8:	611a      	str	r2, [r3, #16]
}
 80010ca:	bf00      	nop
 80010cc:	370c      	adds	r7, #12
 80010ce:	46bd      	mov	sp, r7
 80010d0:	bc80      	pop	{r7}
 80010d2:	4770      	bx	lr

080010d4 <I2C_ExecuteAddressPhaseRead>:
static void I2C_ExecuteAddressPhaseRead(I2C_RegDef_t *pI2Cx,uint8_t SlaveAddr){
 80010d4:	b480      	push	{r7}
 80010d6:	b083      	sub	sp, #12
 80010d8:	af00      	add	r7, sp, #0
 80010da:	6078      	str	r0, [r7, #4]
 80010dc:	460b      	mov	r3, r1
 80010de:	70fb      	strb	r3, [r7, #3]
		SlaveAddr=SlaveAddr << 1;
 80010e0:	78fb      	ldrb	r3, [r7, #3]
 80010e2:	005b      	lsls	r3, r3, #1
 80010e4:	70fb      	strb	r3, [r7, #3]
		SlaveAddr |=1;
 80010e6:	78fb      	ldrb	r3, [r7, #3]
 80010e8:	f043 0301 	orr.w	r3, r3, #1
 80010ec:	70fb      	strb	r3, [r7, #3]
		pI2Cx->I2C_DR =SlaveAddr;
 80010ee:	78fa      	ldrb	r2, [r7, #3]
 80010f0:	687b      	ldr	r3, [r7, #4]
 80010f2:	611a      	str	r2, [r3, #16]
}
 80010f4:	bf00      	nop
 80010f6:	370c      	adds	r7, #12
 80010f8:	46bd      	mov	sp, r7
 80010fa:	bc80      	pop	{r7}
 80010fc:	4770      	bx	lr

080010fe <I2C_ClearADDRFlag>:

static void I2C_ClearADDRFlag(I2C_Handle_t *pI2CHandle){
 80010fe:	b580      	push	{r7, lr}
 8001100:	b084      	sub	sp, #16
 8001102:	af00      	add	r7, sp, #0
 8001104:	6078      	str	r0, [r7, #4]

	// the same code can we used for Non Interrupt mode as well
	// in the case when SendData / receiveData API (non interrupt mode is used) ... than STATE will be in I2C_Ready by default so else part is executed
	uint32_t dummyRead;
	if(pI2CHandle->pI2Cx->I2C_SR2 & (1<<I2C_SR2_MSL)) //@why this condition is important
 8001106:	687b      	ldr	r3, [r7, #4]
 8001108:	681b      	ldr	r3, [r3, #0]
 800110a:	699b      	ldr	r3, [r3, #24]
 800110c:	f003 0301 	and.w	r3, r3, #1
 8001110:	2b00      	cmp	r3, #0
 8001112:	d01f      	beq.n	8001154 <I2C_ClearADDRFlag+0x56>
	{
		if(pI2CHandle->TxRxState==I2C_BUSY_IN_RX)
 8001114:	687b      	ldr	r3, [r7, #4]
 8001116:	f893 3024 	ldrb.w	r3, [r3, #36]	@ 0x24
 800111a:	2b01      	cmp	r3, #1
 800111c:	d112      	bne.n	8001144 <I2C_ClearADDRFlag+0x46>
		{
			if(pI2CHandle->RxSize ==1)
 800111e:	687b      	ldr	r3, [r7, #4]
 8001120:	6a9b      	ldr	r3, [r3, #40]	@ 0x28
 8001122:	2b01      	cmp	r3, #1
 8001124:	d116      	bne.n	8001154 <I2C_ClearADDRFlag+0x56>
			{
				//Diable the acking
				I2C_ManageAcking(pI2CHandle->pI2Cx,I2C_ACK_DISABLE);
 8001126:	687b      	ldr	r3, [r7, #4]
 8001128:	681b      	ldr	r3, [r3, #0]
 800112a:	2100      	movs	r1, #0
 800112c:	4618      	mov	r0, r3
 800112e:	f000 f96f 	bl	8001410 <I2C_ManageAcking>
				//clear the ADDR flag
				dummyRead = pI2CHandle->pI2Cx->I2C_SR1;
 8001132:	687b      	ldr	r3, [r7, #4]
 8001134:	681b      	ldr	r3, [r3, #0]
 8001136:	695b      	ldr	r3, [r3, #20]
 8001138:	60fb      	str	r3, [r7, #12]
				dummyRead = pI2CHandle->pI2Cx->I2C_SR2;
 800113a:	687b      	ldr	r3, [r7, #4]
 800113c:	681b      	ldr	r3, [r3, #0]
 800113e:	699b      	ldr	r3, [r3, #24]
 8001140:	60fb      	str	r3, [r7, #12]
			(void) dummyRead;
		}

	}

}
 8001142:	e007      	b.n	8001154 <I2C_ClearADDRFlag+0x56>
			dummyRead = pI2CHandle->pI2Cx->I2C_SR1;
 8001144:	687b      	ldr	r3, [r7, #4]
 8001146:	681b      	ldr	r3, [r3, #0]
 8001148:	695b      	ldr	r3, [r3, #20]
 800114a:	60fb      	str	r3, [r7, #12]
			dummyRead = pI2CHandle->pI2Cx->I2C_SR2;
 800114c:	687b      	ldr	r3, [r7, #4]
 800114e:	681b      	ldr	r3, [r3, #0]
 8001150:	699b      	ldr	r3, [r3, #24]
 8001152:	60fb      	str	r3, [r7, #12]
}
 8001154:	bf00      	nop
 8001156:	3710      	adds	r7, #16
 8001158:	46bd      	mov	sp, r7
 800115a:	bd80      	pop	{r7, pc}

0800115c <I2C_GenerateStopCondition>:
static void I2C_GenerateStopCondition(I2C_RegDef_t *pI2Cx)
{
 800115c:	b480      	push	{r7}
 800115e:	b083      	sub	sp, #12
 8001160:	af00      	add	r7, sp, #0
 8001162:	6078      	str	r0, [r7, #4]
	pI2Cx->I2C_CR1 |= ( 1 << I2C_CR1_STOP);
 8001164:	687b      	ldr	r3, [r7, #4]
 8001166:	681b      	ldr	r3, [r3, #0]
 8001168:	f443 7200 	orr.w	r2, r3, #512	@ 0x200
 800116c:	687b      	ldr	r3, [r7, #4]
 800116e:	601a      	str	r2, [r3, #0]
}
 8001170:	bf00      	nop
 8001172:	370c      	adds	r7, #12
 8001174:	46bd      	mov	sp, r7
 8001176:	bc80      	pop	{r7}
 8001178:	4770      	bx	lr
	...

0800117c <I2C_PeripheralClockControl>:

void I2C_PeripheralClockControl(I2C_RegDef_t *pI2Cx,uint8_t EnorDi){
 800117c:	b480      	push	{r7}
 800117e:	b083      	sub	sp, #12
 8001180:	af00      	add	r7, sp, #0
 8001182:	6078      	str	r0, [r7, #4]
 8001184:	460b      	mov	r3, r1
 8001186:	70fb      	strb	r3, [r7, #3]
	if(EnorDi==ENABLE)
 8001188:	78fb      	ldrb	r3, [r7, #3]
 800118a:	2b01      	cmp	r3, #1
 800118c:	d120      	bne.n	80011d0 <I2C_PeripheralClockControl+0x54>
		{
			if(pI2Cx==I2C1)
 800118e:	687b      	ldr	r3, [r7, #4]
 8001190:	4a22      	ldr	r2, [pc, #136]	@ (800121c <I2C_PeripheralClockControl+0xa0>)
 8001192:	4293      	cmp	r3, r2
 8001194:	d106      	bne.n	80011a4 <I2C_PeripheralClockControl+0x28>
			{
				I2C1_PCLK_EN();
 8001196:	4b22      	ldr	r3, [pc, #136]	@ (8001220 <I2C_PeripheralClockControl+0xa4>)
 8001198:	6c1b      	ldr	r3, [r3, #64]	@ 0x40
 800119a:	4a21      	ldr	r2, [pc, #132]	@ (8001220 <I2C_PeripheralClockControl+0xa4>)
 800119c:	f443 1300 	orr.w	r3, r3, #2097152	@ 0x200000
 80011a0:	6413      	str	r3, [r2, #64]	@ 0x40
			{
				I2C3_PCLK_DI();
			}

		}
}
 80011a2:	e035      	b.n	8001210 <I2C_PeripheralClockControl+0x94>
			else if(pI2Cx==I2C2)
 80011a4:	687b      	ldr	r3, [r7, #4]
 80011a6:	4a1f      	ldr	r2, [pc, #124]	@ (8001224 <I2C_PeripheralClockControl+0xa8>)
 80011a8:	4293      	cmp	r3, r2
 80011aa:	d106      	bne.n	80011ba <I2C_PeripheralClockControl+0x3e>
				I2C2_PCLK_EN();
 80011ac:	4b1c      	ldr	r3, [pc, #112]	@ (8001220 <I2C_PeripheralClockControl+0xa4>)
 80011ae:	6c1b      	ldr	r3, [r3, #64]	@ 0x40
 80011b0:	4a1b      	ldr	r2, [pc, #108]	@ (8001220 <I2C_PeripheralClockControl+0xa4>)
 80011b2:	f443 0380 	orr.w	r3, r3, #4194304	@ 0x400000
 80011b6:	6413      	str	r3, [r2, #64]	@ 0x40
}
 80011b8:	e02a      	b.n	8001210 <I2C_PeripheralClockControl+0x94>
			else if(pI2Cx==I2C3)
 80011ba:	687b      	ldr	r3, [r7, #4]
 80011bc:	4a1a      	ldr	r2, [pc, #104]	@ (8001228 <I2C_PeripheralClockControl+0xac>)
 80011be:	4293      	cmp	r3, r2
 80011c0:	d126      	bne.n	8001210 <I2C_PeripheralClockControl+0x94>
				I2C3_PCLK_EN();
 80011c2:	4b17      	ldr	r3, [pc, #92]	@ (8001220 <I2C_PeripheralClockControl+0xa4>)
 80011c4:	6c1b      	ldr	r3, [r3, #64]	@ 0x40
 80011c6:	4a16      	ldr	r2, [pc, #88]	@ (8001220 <I2C_PeripheralClockControl+0xa4>)
 80011c8:	f443 0300 	orr.w	r3, r3, #8388608	@ 0x800000
 80011cc:	6413      	str	r3, [r2, #64]	@ 0x40
}
 80011ce:	e01f      	b.n	8001210 <I2C_PeripheralClockControl+0x94>
			if(pI2Cx==I2C1)
 80011d0:	687b      	ldr	r3, [r7, #4]
 80011d2:	4a12      	ldr	r2, [pc, #72]	@ (800121c <I2C_PeripheralClockControl+0xa0>)
 80011d4:	4293      	cmp	r3, r2
 80011d6:	d106      	bne.n	80011e6 <I2C_PeripheralClockControl+0x6a>
				I2C1_PCLK_DI();
 80011d8:	4b11      	ldr	r3, [pc, #68]	@ (8001220 <I2C_PeripheralClockControl+0xa4>)
 80011da:	6c1b      	ldr	r3, [r3, #64]	@ 0x40
 80011dc:	4a10      	ldr	r2, [pc, #64]	@ (8001220 <I2C_PeripheralClockControl+0xa4>)
 80011de:	f423 1300 	bic.w	r3, r3, #2097152	@ 0x200000
 80011e2:	6413      	str	r3, [r2, #64]	@ 0x40
}
 80011e4:	e014      	b.n	8001210 <I2C_PeripheralClockControl+0x94>
			else if(pI2Cx==I2C2)
 80011e6:	687b      	ldr	r3, [r7, #4]
 80011e8:	4a0e      	ldr	r2, [pc, #56]	@ (8001224 <I2C_PeripheralClockControl+0xa8>)
 80011ea:	4293      	cmp	r3, r2
 80011ec:	d106      	bne.n	80011fc <I2C_PeripheralClockControl+0x80>
				I2C2_PCLK_DI();
 80011ee:	4b0c      	ldr	r3, [pc, #48]	@ (8001220 <I2C_PeripheralClockControl+0xa4>)
 80011f0:	6c1b      	ldr	r3, [r3, #64]	@ 0x40
 80011f2:	4a0b      	ldr	r2, [pc, #44]	@ (8001220 <I2C_PeripheralClockControl+0xa4>)
 80011f4:	f423 0380 	bic.w	r3, r3, #4194304	@ 0x400000
 80011f8:	6413      	str	r3, [r2, #64]	@ 0x40
}
 80011fa:	e009      	b.n	8001210 <I2C_PeripheralClockControl+0x94>
			else if(pI2Cx==I2C3)
 80011fc:	687b      	ldr	r3, [r7, #4]
 80011fe:	4a0a      	ldr	r2, [pc, #40]	@ (8001228 <I2C_PeripheralClockControl+0xac>)
 8001200:	4293      	cmp	r3, r2
 8001202:	d105      	bne.n	8001210 <I2C_PeripheralClockControl+0x94>
				I2C3_PCLK_DI();
 8001204:	4b06      	ldr	r3, [pc, #24]	@ (8001220 <I2C_PeripheralClockControl+0xa4>)
 8001206:	6c1b      	ldr	r3, [r3, #64]	@ 0x40
 8001208:	4a05      	ldr	r2, [pc, #20]	@ (8001220 <I2C_PeripheralClockControl+0xa4>)
 800120a:	f423 0300 	bic.w	r3, r3, #8388608	@ 0x800000
 800120e:	6413      	str	r3, [r2, #64]	@ 0x40
}
 8001210:	bf00      	nop
 8001212:	370c      	adds	r7, #12
 8001214:	46bd      	mov	sp, r7
 8001216:	bc80      	pop	{r7}
 8001218:	4770      	bx	lr
 800121a:	bf00      	nop
 800121c:	40005400 	.word	0x40005400
 8001220:	40023800 	.word	0x40023800
 8001224:	40005800 	.word	0x40005800
 8001228:	40005c00 	.word	0x40005c00

0800122c <I2C_Init>:

/*Init and De-Init*/
void I2C_Init(I2C_Handle_t *pI2CHandle){
 800122c:	b580      	push	{r7, lr}
 800122e:	b084      	sub	sp, #16
 8001230:	af00      	add	r7, sp, #0
 8001232:	6078      	str	r0, [r7, #4]


	uint32_t tempReg=0;
 8001234:	2300      	movs	r3, #0
 8001236:	60fb      	str	r3, [r7, #12]

	I2C_PeripheralClockControl(pI2CHandle->pI2Cx, ENABLE);
 8001238:	687b      	ldr	r3, [r7, #4]
 800123a:	681b      	ldr	r3, [r3, #0]
 800123c:	2101      	movs	r1, #1
 800123e:	4618      	mov	r0, r3
 8001240:	f7ff ff9c 	bl	800117c <I2C_PeripheralClockControl>


	// configure the ACK bit in CR1 register
	tempReg|=(pI2CHandle->I2C_Config.I2C_AckControl << I2C_CR1_ACK);
 8001244:	687b      	ldr	r3, [r7, #4]
 8001246:	68db      	ldr	r3, [r3, #12]
 8001248:	029b      	lsls	r3, r3, #10
 800124a:	68fa      	ldr	r2, [r7, #12]
 800124c:	4313      	orrs	r3, r2
 800124e:	60fb      	str	r3, [r7, #12]
    pI2CHandle->pI2Cx->I2C_CR1 |=tempReg;
 8001250:	687b      	ldr	r3, [r7, #4]
 8001252:	681b      	ldr	r3, [r3, #0]
 8001254:	6819      	ldr	r1, [r3, #0]
 8001256:	687b      	ldr	r3, [r7, #4]
 8001258:	681b      	ldr	r3, [r3, #0]
 800125a:	68fa      	ldr	r2, [r7, #12]
 800125c:	430a      	orrs	r2, r1
 800125e:	601a      	str	r2, [r3, #0]

	//configure the SCL speed , for this calculation we need to know the PCLK speed (it can be anything based on preScaler)
	//first configure the FREQ field in CR2 register
    tempReg=0;
 8001260:	2300      	movs	r3, #0
 8001262:	60fb      	str	r3, [r7, #12]
    tempReg|=RCC_GetPCLK1Value()/1000000;
 8001264:	f000 fa04 	bl	8001670 <RCC_GetPCLK1Value>
 8001268:	4603      	mov	r3, r0
 800126a:	4a4f      	ldr	r2, [pc, #316]	@ (80013a8 <I2C_Init+0x17c>)
 800126c:	fba2 2303 	umull	r2, r3, r2, r3
 8001270:	0c9b      	lsrs	r3, r3, #18
 8001272:	68fa      	ldr	r2, [r7, #12]
 8001274:	4313      	orrs	r3, r2
 8001276:	60fb      	str	r3, [r7, #12]
    pI2CHandle->pI2Cx->I2C_CR2|=(tempReg & 0x3F);
 8001278:	687b      	ldr	r3, [r7, #4]
 800127a:	681b      	ldr	r3, [r3, #0]
 800127c:	6859      	ldr	r1, [r3, #4]
 800127e:	68fb      	ldr	r3, [r7, #12]
 8001280:	f003 023f 	and.w	r2, r3, #63	@ 0x3f
 8001284:	687b      	ldr	r3, [r7, #4]
 8001286:	681b      	ldr	r3, [r3, #0]
 8001288:	430a      	orrs	r2, r1
 800128a:	605a      	str	r2, [r3, #4]


    //program the Device own address
    tempReg=0;
 800128c:	2300      	movs	r3, #0
 800128e:	60fb      	str	r3, [r7, #12]
    tempReg|=pI2CHandle->I2C_Config.I2C_DeviceAddress << 1;
 8001290:	687b      	ldr	r3, [r7, #4]
 8001292:	689b      	ldr	r3, [r3, #8]
 8001294:	005b      	lsls	r3, r3, #1
 8001296:	68fa      	ldr	r2, [r7, #12]
 8001298:	4313      	orrs	r3, r2
 800129a:	60fb      	str	r3, [r7, #12]
    tempReg|= (1<<14); //SPECIFIED IN MANUAL
 800129c:	68fb      	ldr	r3, [r7, #12]
 800129e:	f443 4380 	orr.w	r3, r3, #16384	@ 0x4000
 80012a2:	60fb      	str	r3, [r7, #12]
    pI2CHandle->pI2Cx->I2C_OAR1|=tempReg;
 80012a4:	687b      	ldr	r3, [r7, #4]
 80012a6:	681b      	ldr	r3, [r3, #0]
 80012a8:	6899      	ldr	r1, [r3, #8]
 80012aa:	687b      	ldr	r3, [r7, #4]
 80012ac:	681b      	ldr	r3, [r3, #0]
 80012ae:	68fa      	ldr	r2, [r7, #12]
 80012b0:	430a      	orrs	r2, r1
 80012b2:	609a      	str	r2, [r3, #8]


    //configure the CCR register,configure the CCR field
    tempReg=0;
 80012b4:	2300      	movs	r3, #0
 80012b6:	60fb      	str	r3, [r7, #12]
    uint32_t ccr_value=0;
 80012b8:	2300      	movs	r3, #0
 80012ba:	60bb      	str	r3, [r7, #8]
    if(pI2CHandle->I2C_Config.I2C_SCLSpeed <=I2C_SCL_SPEED_SM)
 80012bc:	687b      	ldr	r3, [r7, #4]
 80012be:	685b      	ldr	r3, [r3, #4]
 80012c0:	4a3a      	ldr	r2, [pc, #232]	@ (80013ac <I2C_Init+0x180>)
 80012c2:	4293      	cmp	r3, r2
 80012c4:	d80f      	bhi.n	80012e6 <I2C_Init+0xba>
    {
    	//configure the mode bit 0 by default for STD mode
    	//configure the CCR value in CCR field
    	//we assume in std mode tHigh == tLow
    	ccr_value=(RCC_GetPCLK1Value() / (2* pI2CHandle->I2C_Config.I2C_SCLSpeed));
 80012c6:	f000 f9d3 	bl	8001670 <RCC_GetPCLK1Value>
 80012ca:	4602      	mov	r2, r0
 80012cc:	687b      	ldr	r3, [r7, #4]
 80012ce:	685b      	ldr	r3, [r3, #4]
 80012d0:	005b      	lsls	r3, r3, #1
 80012d2:	fbb2 f3f3 	udiv	r3, r2, r3
 80012d6:	60bb      	str	r3, [r7, #8]
    	tempReg |=(ccr_value &0xFFF);
 80012d8:	68bb      	ldr	r3, [r7, #8]
 80012da:	f3c3 030b 	ubfx	r3, r3, #0, #12
 80012de:	68fa      	ldr	r2, [r7, #12]
 80012e0:	4313      	orrs	r3, r2
 80012e2:	60fb      	str	r3, [r7, #12]
 80012e4:	e02c      	b.n	8001340 <I2C_Init+0x114>

    }
    else
    {
    	//configure the mode as fast mode 15th bit is 1
    	tempReg |=(1 <<I2C_CCR_FS);
 80012e6:	68fb      	ldr	r3, [r7, #12]
 80012e8:	f443 4300 	orr.w	r3, r3, #32768	@ 0x8000
 80012ec:	60fb      	str	r3, [r7, #12]

    	//configure the duty cycle as well , give by the application
    	tempReg |=(pI2CHandle->I2C_Config.I2C_FMDutyCycle << I2C_CCR_DUTY);
 80012ee:	687b      	ldr	r3, [r7, #4]
 80012f0:	691b      	ldr	r3, [r3, #16]
 80012f2:	039b      	lsls	r3, r3, #14
 80012f4:	68fa      	ldr	r2, [r7, #12]
 80012f6:	4313      	orrs	r3, r2
 80012f8:	60fb      	str	r3, [r7, #12]

    	//based on the duty cycle the tHigh and tLow changes
    	if(pI2CHandle->I2C_Config.I2C_FMDutyCycle == I2C_FM_DUTY_2)
 80012fa:	687b      	ldr	r3, [r7, #4]
 80012fc:	691b      	ldr	r3, [r3, #16]
 80012fe:	2b00      	cmp	r3, #0
 8001300:	d10b      	bne.n	800131a <I2C_Init+0xee>
    	{
    		ccr_value=(RCC_GetPCLK1Value() / (3 * pI2CHandle->I2C_Config.I2C_SCLSpeed));
 8001302:	f000 f9b5 	bl	8001670 <RCC_GetPCLK1Value>
 8001306:	4601      	mov	r1, r0
 8001308:	687b      	ldr	r3, [r7, #4]
 800130a:	685a      	ldr	r2, [r3, #4]
 800130c:	4613      	mov	r3, r2
 800130e:	005b      	lsls	r3, r3, #1
 8001310:	4413      	add	r3, r2
 8001312:	fbb1 f3f3 	udiv	r3, r1, r3
 8001316:	60bb      	str	r3, [r7, #8]
 8001318:	e00c      	b.n	8001334 <I2C_Init+0x108>
    	}
    	else
    	{
    		ccr_value=(RCC_GetPCLK1Value() / (25 * pI2CHandle->I2C_Config.I2C_SCLSpeed));
 800131a:	f000 f9a9 	bl	8001670 <RCC_GetPCLK1Value>
 800131e:	4601      	mov	r1, r0
 8001320:	687b      	ldr	r3, [r7, #4]
 8001322:	685a      	ldr	r2, [r3, #4]
 8001324:	4613      	mov	r3, r2
 8001326:	009b      	lsls	r3, r3, #2
 8001328:	4413      	add	r3, r2
 800132a:	009a      	lsls	r2, r3, #2
 800132c:	4413      	add	r3, r2
 800132e:	fbb1 f3f3 	udiv	r3, r1, r3
 8001332:	60bb      	str	r3, [r7, #8]
    	}
    	//configure the CCR value in CCR field
    	tempReg |=(ccr_value &0xFFF);
 8001334:	68bb      	ldr	r3, [r7, #8]
 8001336:	f3c3 030b 	ubfx	r3, r3, #0, #12
 800133a:	68fa      	ldr	r2, [r7, #12]
 800133c:	4313      	orrs	r3, r2
 800133e:	60fb      	str	r3, [r7, #12]

    }
    pI2CHandle->pI2Cx->I2C_CCR|=tempReg;
 8001340:	687b      	ldr	r3, [r7, #4]
 8001342:	681b      	ldr	r3, [r3, #0]
 8001344:	69d9      	ldr	r1, [r3, #28]
 8001346:	687b      	ldr	r3, [r7, #4]
 8001348:	681b      	ldr	r3, [r3, #0]
 800134a:	68fa      	ldr	r2, [r7, #12]
 800134c:	430a      	orrs	r2, r1
 800134e:	61da      	str	r2, [r3, #28]



    //TRise configuration
    tempReg=0;
 8001350:	2300      	movs	r3, #0
 8001352:	60fb      	str	r3, [r7, #12]
    //need to find maximum allowed rise time for SCL in SM mode and fast mode
    if(pI2CHandle->I2C_Config.I2C_SCLSpeed==I2C_SCL_SPEED_SM)
 8001354:	687b      	ldr	r3, [r7, #4]
 8001356:	685b      	ldr	r3, [r3, #4]
 8001358:	4a14      	ldr	r2, [pc, #80]	@ (80013ac <I2C_Init+0x180>)
 800135a:	4293      	cmp	r3, r2
 800135c:	d109      	bne.n	8001372 <I2C_Init+0x146>
    {
    	//standard mode , Trise is 1000ns
    	tempReg = ((RCC_GetPCLK1Value()/1000000U)+1);
 800135e:	f000 f987 	bl	8001670 <RCC_GetPCLK1Value>
 8001362:	4603      	mov	r3, r0
 8001364:	4a10      	ldr	r2, [pc, #64]	@ (80013a8 <I2C_Init+0x17c>)
 8001366:	fba2 2303 	umull	r2, r3, r2, r3
 800136a:	0c9b      	lsrs	r3, r3, #18
 800136c:	3301      	adds	r3, #1
 800136e:	60fb      	str	r3, [r7, #12]
 8001370:	e00d      	b.n	800138e <I2C_Init+0x162>

    }
    else{
    	//fast mode  , Trise is 300ns
    	tempReg=((RCC_GetPCLK1Value()*300)/1000000000U)+1;
 8001372:	f000 f97d 	bl	8001670 <RCC_GetPCLK1Value>
 8001376:	4603      	mov	r3, r0
 8001378:	f44f 7296 	mov.w	r2, #300	@ 0x12c
 800137c:	fb02 f303 	mul.w	r3, r2, r3
 8001380:	0a5b      	lsrs	r3, r3, #9
 8001382:	4a0b      	ldr	r2, [pc, #44]	@ (80013b0 <I2C_Init+0x184>)
 8001384:	fba2 2303 	umull	r2, r3, r2, r3
 8001388:	09db      	lsrs	r3, r3, #7
 800138a:	3301      	adds	r3, #1
 800138c:	60fb      	str	r3, [r7, #12]

    }
    pI2CHandle->pI2Cx->I2C_TRISE|=tempReg;
 800138e:	687b      	ldr	r3, [r7, #4]
 8001390:	681b      	ldr	r3, [r3, #0]
 8001392:	6a19      	ldr	r1, [r3, #32]
 8001394:	687b      	ldr	r3, [r7, #4]
 8001396:	681b      	ldr	r3, [r3, #0]
 8001398:	68fa      	ldr	r2, [r7, #12]
 800139a:	430a      	orrs	r2, r1
 800139c:	621a      	str	r2, [r3, #32]





}
 800139e:	bf00      	nop
 80013a0:	3710      	adds	r7, #16
 80013a2:	46bd      	mov	sp, r7
 80013a4:	bd80      	pop	{r7, pc}
 80013a6:	bf00      	nop
 80013a8:	431bde83 	.word	0x431bde83
 80013ac:	000186a0 	.word	0x000186a0
 80013b0:	00044b83 	.word	0x00044b83

080013b4 <I2C_PeripheralControl>:
			I2C3_REG_RESET();
		}
}

/*I2C Peripheral enable API */
void I2C_PeripheralControl(I2C_RegDef_t *pI2CX,uint8_t EnorDi){
 80013b4:	b480      	push	{r7}
 80013b6:	b083      	sub	sp, #12
 80013b8:	af00      	add	r7, sp, #0
 80013ba:	6078      	str	r0, [r7, #4]
 80013bc:	460b      	mov	r3, r1
 80013be:	70fb      	strb	r3, [r7, #3]

		if(EnorDi ==ENABLE)
 80013c0:	78fb      	ldrb	r3, [r7, #3]
 80013c2:	2b01      	cmp	r3, #1
 80013c4:	d106      	bne.n	80013d4 <I2C_PeripheralControl+0x20>
		{
			pI2CX->I2C_CR1 |=(1 << I2C_CR1_PE);
 80013c6:	687b      	ldr	r3, [r7, #4]
 80013c8:	681b      	ldr	r3, [r3, #0]
 80013ca:	f043 0201 	orr.w	r2, r3, #1
 80013ce:	687b      	ldr	r3, [r7, #4]
 80013d0:	601a      	str	r2, [r3, #0]
		else
		{
			pI2CX->I2C_CR1 &= ~(1 << I2C_CR1_PE);
		}

}
 80013d2:	e005      	b.n	80013e0 <I2C_PeripheralControl+0x2c>
			pI2CX->I2C_CR1 &= ~(1 << I2C_CR1_PE);
 80013d4:	687b      	ldr	r3, [r7, #4]
 80013d6:	681b      	ldr	r3, [r3, #0]
 80013d8:	f023 0201 	bic.w	r2, r3, #1
 80013dc:	687b      	ldr	r3, [r7, #4]
 80013de:	601a      	str	r2, [r3, #0]
}
 80013e0:	bf00      	nop
 80013e2:	370c      	adds	r7, #12
 80013e4:	46bd      	mov	sp, r7
 80013e6:	bc80      	pop	{r7}
 80013e8:	4770      	bx	lr

080013ea <I2C_GetFlagStatus>:

}


//Adding an function to check the flags ,repository code
uint8_t I2C_GetFlagStatus(I2C_RegDef_t *pI2Cx , uint32_t FlagName){
 80013ea:	b480      	push	{r7}
 80013ec:	b083      	sub	sp, #12
 80013ee:	af00      	add	r7, sp, #0
 80013f0:	6078      	str	r0, [r7, #4]
 80013f2:	6039      	str	r1, [r7, #0]
	if(pI2Cx->I2C_SR1 & FlagName)
 80013f4:	687b      	ldr	r3, [r7, #4]
 80013f6:	695a      	ldr	r2, [r3, #20]
 80013f8:	683b      	ldr	r3, [r7, #0]
 80013fa:	4013      	ands	r3, r2
 80013fc:	2b00      	cmp	r3, #0
 80013fe:	d001      	beq.n	8001404 <I2C_GetFlagStatus+0x1a>
		{
			return FLAG_SET;
 8001400:	2301      	movs	r3, #1
 8001402:	e000      	b.n	8001406 <I2C_GetFlagStatus+0x1c>
		}
		return FLAG_RESET;
 8001404:	2300      	movs	r3, #0


}
 8001406:	4618      	mov	r0, r3
 8001408:	370c      	adds	r7, #12
 800140a:	46bd      	mov	sp, r7
 800140c:	bc80      	pop	{r7}
 800140e:	4770      	bx	lr

08001410 <I2C_ManageAcking>:


void I2C_ManageAcking(I2C_RegDef_t *pI2Cx,uint8_t EnorDi)
{
 8001410:	b480      	push	{r7}
 8001412:	b083      	sub	sp, #12
 8001414:	af00      	add	r7, sp, #0
 8001416:	6078      	str	r0, [r7, #4]
 8001418:	460b      	mov	r3, r1
 800141a:	70fb      	strb	r3, [r7, #3]
	if(EnorDi == I2C_ACK_ENABLE)
 800141c:	78fb      	ldrb	r3, [r7, #3]
 800141e:	2b01      	cmp	r3, #1
 8001420:	d106      	bne.n	8001430 <I2C_ManageAcking+0x20>
	{
		pI2Cx->I2C_CR1 |= (I2C_ACK_ENABLE << I2C_CR1_ACK);
 8001422:	687b      	ldr	r3, [r7, #4]
 8001424:	681b      	ldr	r3, [r3, #0]
 8001426:	f443 6280 	orr.w	r2, r3, #1024	@ 0x400
 800142a:	687b      	ldr	r3, [r7, #4]
 800142c:	601a      	str	r2, [r3, #0]
	}
	else
	{
		pI2Cx->I2C_CR1 &= ~(I2C_ACK_ENABLE << I2C_CR1_ACK);
	}
}
 800142e:	e005      	b.n	800143c <I2C_ManageAcking+0x2c>
		pI2Cx->I2C_CR1 &= ~(I2C_ACK_ENABLE << I2C_CR1_ACK);
 8001430:	687b      	ldr	r3, [r7, #4]
 8001432:	681b      	ldr	r3, [r3, #0]
 8001434:	f423 6280 	bic.w	r2, r3, #1024	@ 0x400
 8001438:	687b      	ldr	r3, [r7, #4]
 800143a:	601a      	str	r2, [r3, #0]
}
 800143c:	bf00      	nop
 800143e:	370c      	adds	r7, #12
 8001440:	46bd      	mov	sp, r7
 8001442:	bc80      	pop	{r7}
 8001444:	4770      	bx	lr

08001446 <I2C_MasterSendData>:

void I2C_MasterSendData(I2C_Handle_t *pI2CHandle,uint8_t *pTxBuffer, uint8_t Len,uint8_t SlaveAddr,uint8_t Sr)
{
 8001446:	b580      	push	{r7, lr}
 8001448:	b084      	sub	sp, #16
 800144a:	af00      	add	r7, sp, #0
 800144c:	60f8      	str	r0, [r7, #12]
 800144e:	60b9      	str	r1, [r7, #8]
 8001450:	4611      	mov	r1, r2
 8001452:	461a      	mov	r2, r3
 8001454:	460b      	mov	r3, r1
 8001456:	71fb      	strb	r3, [r7, #7]
 8001458:	4613      	mov	r3, r2
 800145a:	71bb      	strb	r3, [r7, #6]
	//1.Generate start condition
	//create an small helper function for this  private to driver file
	I2C_GenerateStartCondition(pI2CHandle->pI2Cx);
 800145c:	68fb      	ldr	r3, [r7, #12]
 800145e:	681b      	ldr	r3, [r3, #0]
 8001460:	4618      	mov	r0, r3
 8001462:	f7ff fe13 	bl	800108c <I2C_GenerateStartCondition>

	//2.confirm that start condition is generated by checking the SB flag in SR1
	// Note : Until SB is cleared SCL will be stretched (pulled to Low),cleared by reading SR1 and writing Data in DR which is done in ExecuteAdddresPhase
	while(!I2C_GetFlagStatus(pI2CHandle->pI2Cx,I2C_FLAG_SB));
 8001466:	bf00      	nop
 8001468:	68fb      	ldr	r3, [r7, #12]
 800146a:	681b      	ldr	r3, [r3, #0]
 800146c:	2101      	movs	r1, #1
 800146e:	4618      	mov	r0, r3
 8001470:	f7ff ffbb 	bl	80013ea <I2C_GetFlagStatus>
 8001474:	4603      	mov	r3, r0
 8001476:	2b00      	cmp	r3, #0
 8001478:	d0f6      	beq.n	8001468 <I2C_MasterSendData+0x22>
	// will be cleared by reading SR1 and writing to DR

	//3.send the address of the slave with r/2 bit set to w(0) (8 bits in total)
	I2C_ExecuteAddressPhaseWrite(pI2CHandle->pI2Cx,SlaveAddr);
 800147a:	68fb      	ldr	r3, [r7, #12]
 800147c:	681b      	ldr	r3, [r3, #0]
 800147e:	79ba      	ldrb	r2, [r7, #6]
 8001480:	4611      	mov	r1, r2
 8001482:	4618      	mov	r0, r3
 8001484:	f7ff fe11 	bl	80010aa <I2C_ExecuteAddressPhaseWrite>


	//4.confirm that address phase is completed by reading the SR1
	while(!I2C_GetFlagStatus(pI2CHandle->pI2Cx,I2C_FLAG_ADDR)); // if set as 1 ADDR is ack proceed to transmit  by clearing the ADDR bit
 8001488:	bf00      	nop
 800148a:	68fb      	ldr	r3, [r7, #12]
 800148c:	681b      	ldr	r3, [r3, #0]
 800148e:	2102      	movs	r1, #2
 8001490:	4618      	mov	r0, r3
 8001492:	f7ff ffaa 	bl	80013ea <I2C_GetFlagStatus>
 8001496:	4603      	mov	r3, r0
 8001498:	2b00      	cmp	r3, #0
 800149a:	d0f6      	beq.n	800148a <I2C_MasterSendData+0x44>


	//5. clear the ADDR bit in SR1 , cleared by reading SR1 and SR2
	// Note : until this ADDR is not cleared SCL will be stretched (pulled to Low)
	I2C_ClearADDRFlag(pI2CHandle);
 800149c:	68f8      	ldr	r0, [r7, #12]
 800149e:	f7ff fe2e 	bl	80010fe <I2C_ClearADDRFlag>

	//6.send the data until Length becomes 0
	while(Len > 0)
 80014a2:	e014      	b.n	80014ce <I2C_MasterSendData+0x88>
	{
			while(! I2C_GetFlagStatus(pI2CHandle->pI2Cx,I2C_FLAG_TXE) ); //Wait till TXE is set
 80014a4:	bf00      	nop
 80014a6:	68fb      	ldr	r3, [r7, #12]
 80014a8:	681b      	ldr	r3, [r3, #0]
 80014aa:	2180      	movs	r1, #128	@ 0x80
 80014ac:	4618      	mov	r0, r3
 80014ae:	f7ff ff9c 	bl	80013ea <I2C_GetFlagStatus>
 80014b2:	4603      	mov	r3, r0
 80014b4:	2b00      	cmp	r3, #0
 80014b6:	d0f6      	beq.n	80014a6 <I2C_MasterSendData+0x60>
			pI2CHandle->pI2Cx->I2C_DR = *pTxBuffer;
 80014b8:	68bb      	ldr	r3, [r7, #8]
 80014ba:	781a      	ldrb	r2, [r3, #0]
 80014bc:	68fb      	ldr	r3, [r7, #12]
 80014be:	681b      	ldr	r3, [r3, #0]
 80014c0:	611a      	str	r2, [r3, #16]
			pTxBuffer++;
 80014c2:	68bb      	ldr	r3, [r7, #8]
 80014c4:	3301      	adds	r3, #1
 80014c6:	60bb      	str	r3, [r7, #8]
			Len--;
 80014c8:	79fb      	ldrb	r3, [r7, #7]
 80014ca:	3b01      	subs	r3, #1
 80014cc:	71fb      	strb	r3, [r7, #7]
	while(Len > 0)
 80014ce:	79fb      	ldrb	r3, [r7, #7]
 80014d0:	2b00      	cmp	r3, #0
 80014d2:	d1e7      	bne.n	80014a4 <I2C_MasterSendData+0x5e>

	//7. when Length becomes zero wait for TXE=1 and BTF=1 before generating the STOP condition
		//   Note: TXE=1 , BTF=1 , means that both SR and DR are empty and next transmission should begin
		//   when BTF=1 SCL will be stretched (pulled to LOW)

	while(! I2C_GetFlagStatus(pI2CHandle->pI2Cx,I2C_FLAG_TXE) );
 80014d4:	bf00      	nop
 80014d6:	68fb      	ldr	r3, [r7, #12]
 80014d8:	681b      	ldr	r3, [r3, #0]
 80014da:	2180      	movs	r1, #128	@ 0x80
 80014dc:	4618      	mov	r0, r3
 80014de:	f7ff ff84 	bl	80013ea <I2C_GetFlagStatus>
 80014e2:	4603      	mov	r3, r0
 80014e4:	2b00      	cmp	r3, #0
 80014e6:	d0f6      	beq.n	80014d6 <I2C_MasterSendData+0x90>
	while(! I2C_GetFlagStatus(pI2CHandle->pI2Cx,I2C_FLAG_BTF) );
 80014e8:	bf00      	nop
 80014ea:	68fb      	ldr	r3, [r7, #12]
 80014ec:	681b      	ldr	r3, [r3, #0]
 80014ee:	2104      	movs	r1, #4
 80014f0:	4618      	mov	r0, r3
 80014f2:	f7ff ff7a 	bl	80013ea <I2C_GetFlagStatus>
 80014f6:	4603      	mov	r3, r0
 80014f8:	2b00      	cmp	r3, #0
 80014fa:	d0f6      	beq.n	80014ea <I2C_MasterSendData+0xa4>


	//8. Generate stop condition , when executed the BTF is automatically cleared

	if(Sr == I2C_DISABLE_SR )
 80014fc:	7e3b      	ldrb	r3, [r7, #24]
 80014fe:	2b00      	cmp	r3, #0
 8001500:	d104      	bne.n	800150c <I2C_MasterSendData+0xc6>
		I2C_GenerateStopCondition(pI2CHandle->pI2Cx);
 8001502:	68fb      	ldr	r3, [r7, #12]
 8001504:	681b      	ldr	r3, [r3, #0]
 8001506:	4618      	mov	r0, r3
 8001508:	f7ff fe28 	bl	800115c <I2C_GenerateStopCondition>


}
 800150c:	bf00      	nop
 800150e:	3710      	adds	r7, #16
 8001510:	46bd      	mov	sp, r7
 8001512:	bd80      	pop	{r7, pc}

08001514 <I2C_MasterReceiveData>:
void I2C_MasterReceiveData(I2C_Handle_t *pI2CHandle,uint8_t *pRxBuffer, uint8_t Len,uint8_t SlaveAddr,uint8_t Sr)
{
 8001514:	b580      	push	{r7, lr}
 8001516:	b086      	sub	sp, #24
 8001518:	af00      	add	r7, sp, #0
 800151a:	60f8      	str	r0, [r7, #12]
 800151c:	60b9      	str	r1, [r7, #8]
 800151e:	4611      	mov	r1, r2
 8001520:	461a      	mov	r2, r3
 8001522:	460b      	mov	r3, r1
 8001524:	71fb      	strb	r3, [r7, #7]
 8001526:	4613      	mov	r3, r2
 8001528:	71bb      	strb	r3, [r7, #6]

	//1.generate start condition
	I2C_GenerateStartCondition(pI2CHandle->pI2Cx);
 800152a:	68fb      	ldr	r3, [r7, #12]
 800152c:	681b      	ldr	r3, [r3, #0]
 800152e:	4618      	mov	r0, r3
 8001530:	f7ff fdac 	bl	800108c <I2C_GenerateStartCondition>

	//2.confirm that start condition is generated by checking the SB flag in SR1
	// Note : Until SB is cleared SCL will be stretched (pulled to Low),cleared by reading SR1 and writing Data in DR which is done in ExecuteAdddresPhase
	while(!I2C_GetFlagStatus(pI2CHandle->pI2Cx,I2C_FLAG_SB));
 8001534:	bf00      	nop
 8001536:	68fb      	ldr	r3, [r7, #12]
 8001538:	681b      	ldr	r3, [r3, #0]
 800153a:	2101      	movs	r1, #1
 800153c:	4618      	mov	r0, r3
 800153e:	f7ff ff54 	bl	80013ea <I2C_GetFlagStatus>
 8001542:	4603      	mov	r3, r0
 8001544:	2b00      	cmp	r3, #0
 8001546:	d0f6      	beq.n	8001536 <I2C_MasterReceiveData+0x22>

	//3.Send the address of the slave with r/w bit ,we are doing read so this bit is 1
	I2C_ExecuteAddressPhaseRead(pI2CHandle->pI2Cx,SlaveAddr);
 8001548:	68fb      	ldr	r3, [r7, #12]
 800154a:	681b      	ldr	r3, [r3, #0]
 800154c:	79ba      	ldrb	r2, [r7, #6]
 800154e:	4611      	mov	r1, r2
 8001550:	4618      	mov	r0, r3
 8001552:	f7ff fdbf 	bl	80010d4 <I2C_ExecuteAddressPhaseRead>

	//4. wait until the address phase is completed by checking the ADDR flag is set
	while(!I2C_GetFlagStatus(pI2CHandle->pI2Cx,I2C_FLAG_ADDR));
 8001556:	bf00      	nop
 8001558:	68fb      	ldr	r3, [r7, #12]
 800155a:	681b      	ldr	r3, [r3, #0]
 800155c:	2102      	movs	r1, #2
 800155e:	4618      	mov	r0, r3
 8001560:	f7ff ff43 	bl	80013ea <I2C_GetFlagStatus>
 8001564:	4603      	mov	r3, r0
 8001566:	2b00      	cmp	r3, #0
 8001568:	d0f6      	beq.n	8001558 <I2C_MasterReceiveData+0x44>
	// procedure if to read only 1 byte from slave , while clearing the ADDR bit .. we do Disable ACK , STOP bit set .. and than finally clear the ADDR


	if(Len ==1)
 800156a:	79fb      	ldrb	r3, [r7, #7]
 800156c:	2b01      	cmp	r3, #1
 800156e:	d125      	bne.n	80015bc <I2C_MasterReceiveData+0xa8>
	{
		//Disable Acking
		I2C_ManageAcking(pI2CHandle->pI2Cx,I2C_ACK_DISABLE);
 8001570:	68fb      	ldr	r3, [r7, #12]
 8001572:	681b      	ldr	r3, [r3, #0]
 8001574:	2100      	movs	r1, #0
 8001576:	4618      	mov	r0, r3
 8001578:	f7ff ff4a 	bl	8001410 <I2C_ManageAcking>


		//clear the ADDR flag .. so the clock stretching is released
		I2C_ClearADDRFlag(pI2CHandle);
 800157c:	68f8      	ldr	r0, [r7, #12]
 800157e:	f7ff fdbe 	bl	80010fe <I2C_ClearADDRFlag>

		// wait until RXNE becomes 1
		while(! I2C_GetFlagStatus(pI2CHandle->pI2Cx,I2C_FLAG_RXNE) );
 8001582:	bf00      	nop
 8001584:	68fb      	ldr	r3, [r7, #12]
 8001586:	681b      	ldr	r3, [r3, #0]
 8001588:	2140      	movs	r1, #64	@ 0x40
 800158a:	4618      	mov	r0, r3
 800158c:	f7ff ff2d 	bl	80013ea <I2C_GetFlagStatus>
 8001590:	4603      	mov	r3, r0
 8001592:	2b00      	cmp	r3, #0
 8001594:	d0f6      	beq.n	8001584 <I2C_MasterReceiveData+0x70>
		// read Data in to buffer
		*pRxBuffer =pI2CHandle->pI2Cx->I2C_DR;
 8001596:	68fb      	ldr	r3, [r7, #12]
 8001598:	681b      	ldr	r3, [r3, #0]
 800159a:	691b      	ldr	r3, [r3, #16]
 800159c:	b2da      	uxtb	r2, r3
 800159e:	68bb      	ldr	r3, [r7, #8]
 80015a0:	701a      	strb	r2, [r3, #0]
		Len--;
 80015a2:	79fb      	ldrb	r3, [r7, #7]
 80015a4:	3b01      	subs	r3, #1
 80015a6:	71fb      	strb	r3, [r7, #7]


		//Generate the stop condition
		if(Sr == I2C_DISABLE_SR )
 80015a8:	f897 3020 	ldrb.w	r3, [r7, #32]
 80015ac:	2b00      	cmp	r3, #0
 80015ae:	d139      	bne.n	8001624 <I2C_MasterReceiveData+0x110>
			I2C_GenerateStopCondition(pI2CHandle->pI2Cx); // for one byte of Data this code position is important , else before data is come to SR ... bUs will be released;
 80015b0:	68fb      	ldr	r3, [r7, #12]
 80015b2:	681b      	ldr	r3, [r3, #0]
 80015b4:	4618      	mov	r0, r3
 80015b6:	f7ff fdd1 	bl	800115c <I2C_GenerateStopCondition>
 80015ba:	e033      	b.n	8001624 <I2C_MasterReceiveData+0x110>



	}
	else if (Len > 1)
 80015bc:	79fb      	ldrb	r3, [r7, #7]
 80015be:	2b01      	cmp	r3, #1
 80015c0:	d930      	bls.n	8001624 <I2C_MasterReceiveData+0x110>
	{

		// use an for loop implementation here , cause we have to handle the case when reading last 2 byte
		I2C_ClearADDRFlag(pI2CHandle);
 80015c2:	68f8      	ldr	r0, [r7, #12]
 80015c4:	f7ff fd9b 	bl	80010fe <I2C_ClearADDRFlag>

		for(uint32_t i=Len;i>0;i--)
 80015c8:	79fb      	ldrb	r3, [r7, #7]
 80015ca:	617b      	str	r3, [r7, #20]
 80015cc:	e027      	b.n	800161e <I2C_MasterReceiveData+0x10a>
		{
			// wait until RXNE becomes 1
			while(! I2C_GetFlagStatus(pI2CHandle->pI2Cx,I2C_FLAG_RXNE) ); // wait until RXNE becomes 1 for the 2nd last byte , when this happens parallely last 1 byte  data is coming to SR
 80015ce:	bf00      	nop
 80015d0:	68fb      	ldr	r3, [r7, #12]
 80015d2:	681b      	ldr	r3, [r3, #0]
 80015d4:	2140      	movs	r1, #64	@ 0x40
 80015d6:	4618      	mov	r0, r3
 80015d8:	f7ff ff07 	bl	80013ea <I2C_GetFlagStatus>
 80015dc:	4603      	mov	r3, r0
 80015de:	2b00      	cmp	r3, #0
 80015e0:	d0f6      	beq.n	80015d0 <I2C_MasterReceiveData+0xbc>
			//sequence mentioned in reference manual 
			if(i==2)
 80015e2:	697b      	ldr	r3, [r7, #20]
 80015e4:	2b02      	cmp	r3, #2
 80015e6:	d10e      	bne.n	8001606 <I2C_MasterReceiveData+0xf2>
			{
				//special Handling
				I2C_ManageAcking(pI2CHandle->pI2Cx,I2C_ACK_DISABLE); // reading 2nd last byte , but in SR Last byte is getting transferred
 80015e8:	68fb      	ldr	r3, [r7, #12]
 80015ea:	681b      	ldr	r3, [r3, #0]
 80015ec:	2100      	movs	r1, #0
 80015ee:	4618      	mov	r0, r3
 80015f0:	f7ff ff0e 	bl	8001410 <I2C_ManageAcking>

				if(Sr == I2C_DISABLE_SR )
 80015f4:	f897 3020 	ldrb.w	r3, [r7, #32]
 80015f8:	2b00      	cmp	r3, #0
 80015fa:	d104      	bne.n	8001606 <I2C_MasterReceiveData+0xf2>
					I2C_GenerateStopCondition(pI2CHandle->pI2Cx);
 80015fc:	68fb      	ldr	r3, [r7, #12]
 80015fe:	681b      	ldr	r3, [r3, #0]
 8001600:	4618      	mov	r0, r3
 8001602:	f7ff fdab 	bl	800115c <I2C_GenerateStopCondition>

				// the above steps to be followed are mentioned in the reference manual

			}
			*pRxBuffer =pI2CHandle->pI2Cx->I2C_DR;
 8001606:	68fb      	ldr	r3, [r7, #12]
 8001608:	681b      	ldr	r3, [r3, #0]
 800160a:	691b      	ldr	r3, [r3, #16]
 800160c:	b2da      	uxtb	r2, r3
 800160e:	68bb      	ldr	r3, [r7, #8]
 8001610:	701a      	strb	r2, [r3, #0]
			pRxBuffer++;
 8001612:	68bb      	ldr	r3, [r7, #8]
 8001614:	3301      	adds	r3, #1
 8001616:	60bb      	str	r3, [r7, #8]
		for(uint32_t i=Len;i>0;i--)
 8001618:	697b      	ldr	r3, [r7, #20]
 800161a:	3b01      	subs	r3, #1
 800161c:	617b      	str	r3, [r7, #20]
 800161e:	697b      	ldr	r3, [r7, #20]
 8001620:	2b00      	cmp	r3, #0
 8001622:	d1d4      	bne.n	80015ce <I2C_MasterReceiveData+0xba>

	}

	//re-enable acking , if Acking was enabled before coming to this API , we need to maintain that

	if(pI2CHandle->I2C_Config.I2C_AckControl == I2C_ACK_ENABLE)
 8001624:	68fb      	ldr	r3, [r7, #12]
 8001626:	68db      	ldr	r3, [r3, #12]
 8001628:	2b01      	cmp	r3, #1
 800162a:	d105      	bne.n	8001638 <I2C_MasterReceiveData+0x124>
	{
		I2C_ManageAcking(pI2CHandle->pI2Cx,I2C_ACK_ENABLE);
 800162c:	68fb      	ldr	r3, [r7, #12]
 800162e:	681b      	ldr	r3, [r3, #0]
 8001630:	2101      	movs	r1, #1
 8001632:	4618      	mov	r0, r3
 8001634:	f7ff feec 	bl	8001410 <I2C_ManageAcking>
	}

}
 8001638:	bf00      	nop
 800163a:	3718      	adds	r7, #24
 800163c:	46bd      	mov	sp, r7
 800163e:	bd80      	pop	{r7, pc}

08001640 <RCC_GetPLLOutputClock>:
#include "stm32f4xx_rcc_driver.h"

uint32_t  AHB_PS[8]={2,4,8,16,64,128,256,512};
uint32_t  APB_PS[5]={2,4,8,16};

void RCC_GetPLLOutputClock(){
 8001640:	b480      	push	{r7}
 8001642:	af00      	add	r7, sp, #0

}
 8001644:	bf00      	nop
 8001646:	46bd      	mov	sp, r7
 8001648:	bc80      	pop	{r7}
 800164a:	4770      	bx	lr

0800164c <findClockSource>:

static uint32_t findClockSource()
{
 800164c:	b480      	push	{r7}
 800164e:	b083      	sub	sp, #12
 8001650:	af00      	add	r7, sp, #0
	uint32_t temp;

	temp = ((RCC->CFGR >> 2) & 0x3);
 8001652:	4b06      	ldr	r3, [pc, #24]	@ (800166c <findClockSource+0x20>)
 8001654:	689b      	ldr	r3, [r3, #8]
 8001656:	089b      	lsrs	r3, r3, #2
 8001658:	f003 0303 	and.w	r3, r3, #3
 800165c:	607b      	str	r3, [r7, #4]

	return temp;
 800165e:	687b      	ldr	r3, [r7, #4]

}
 8001660:	4618      	mov	r0, r3
 8001662:	370c      	adds	r7, #12
 8001664:	46bd      	mov	sp, r7
 8001666:	bc80      	pop	{r7}
 8001668:	4770      	bx	lr
 800166a:	bf00      	nop
 800166c:	40023800 	.word	0x40023800

08001670 <RCC_GetPCLK1Value>:

		return PCLK_SPEED;


}
uint32_t RCC_GetPCLK1Value(){
 8001670:	b580      	push	{r7, lr}
 8001672:	b086      	sub	sp, #24
 8001674:	af00      	add	r7, sp, #0
	// clock source --> AHb1 prescaler --> APB1 prescaler ---> APB1 peripheral clocks

		// find the clock source from RCC_CFGR Regsiter
		uint32_t clckSource=0,SysClk=0,AHB_Prescaler=0, APB_Prescaler=0,temp=0,PCLK_SPEED;
 8001676:	2300      	movs	r3, #0
 8001678:	60bb      	str	r3, [r7, #8]
 800167a:	2300      	movs	r3, #0
 800167c:	617b      	str	r3, [r7, #20]
 800167e:	2300      	movs	r3, #0
 8001680:	613b      	str	r3, [r7, #16]
 8001682:	2300      	movs	r3, #0
 8001684:	60fb      	str	r3, [r7, #12]
 8001686:	2300      	movs	r3, #0
 8001688:	607b      	str	r3, [r7, #4]

		clckSource=findClockSource();
 800168a:	f7ff ffdf 	bl	800164c <findClockSource>
 800168e:	60b8      	str	r0, [r7, #8]

		if(clckSource==0)
 8001690:	68bb      	ldr	r3, [r7, #8]
 8001692:	2b00      	cmp	r3, #0
 8001694:	d102      	bne.n	800169c <RCC_GetPCLK1Value+0x2c>
		{
	       SysClk=16000000;
 8001696:	4b1f      	ldr	r3, [pc, #124]	@ (8001714 <RCC_GetPCLK1Value+0xa4>)
 8001698:	617b      	str	r3, [r7, #20]
 800169a:	e00a      	b.n	80016b2 <RCC_GetPCLK1Value+0x42>

		}
		else if(clckSource ==1)
 800169c:	68bb      	ldr	r3, [r7, #8]
 800169e:	2b01      	cmp	r3, #1
 80016a0:	d102      	bne.n	80016a8 <RCC_GetPCLK1Value+0x38>
		{
			SysClk=8000000;
 80016a2:	4b1d      	ldr	r3, [pc, #116]	@ (8001718 <RCC_GetPCLK1Value+0xa8>)
 80016a4:	617b      	str	r3, [r7, #20]
 80016a6:	e004      	b.n	80016b2 <RCC_GetPCLK1Value+0x42>

		}
		else if(clckSource ==2)
 80016a8:	68bb      	ldr	r3, [r7, #8]
 80016aa:	2b02      	cmp	r3, #2
 80016ac:	d101      	bne.n	80016b2 <RCC_GetPCLK1Value+0x42>
		{
			RCC_GetPLLOutputClock();
 80016ae:	f7ff ffc7 	bl	8001640 <RCC_GetPLLOutputClock>

		}

		//need to find the preSclaer of AHB

		temp = ((RCC->CFGR >> 4) &  0xF);
 80016b2:	4b1a      	ldr	r3, [pc, #104]	@ (800171c <RCC_GetPCLK1Value+0xac>)
 80016b4:	689b      	ldr	r3, [r3, #8]
 80016b6:	091b      	lsrs	r3, r3, #4
 80016b8:	f003 030f 	and.w	r3, r3, #15
 80016bc:	607b      	str	r3, [r7, #4]
		if(temp<8)
 80016be:	687b      	ldr	r3, [r7, #4]
 80016c0:	2b07      	cmp	r3, #7
 80016c2:	d802      	bhi.n	80016ca <RCC_GetPCLK1Value+0x5a>
		{
			AHB_Prescaler=1;
 80016c4:	2301      	movs	r3, #1
 80016c6:	613b      	str	r3, [r7, #16]
 80016c8:	e005      	b.n	80016d6 <RCC_GetPCLK1Value+0x66>
		}
		else
		{
			AHB_Prescaler=AHB_PS[temp-8];
 80016ca:	687b      	ldr	r3, [r7, #4]
 80016cc:	3b08      	subs	r3, #8
 80016ce:	4a14      	ldr	r2, [pc, #80]	@ (8001720 <RCC_GetPCLK1Value+0xb0>)
 80016d0:	f852 3023 	ldr.w	r3, [r2, r3, lsl #2]
 80016d4:	613b      	str	r3, [r7, #16]
		}


		//need to find the Prescaler of APB
		temp = ((RCC->CFGR >> 10) &  0x7);
 80016d6:	4b11      	ldr	r3, [pc, #68]	@ (800171c <RCC_GetPCLK1Value+0xac>)
 80016d8:	689b      	ldr	r3, [r3, #8]
 80016da:	0a9b      	lsrs	r3, r3, #10
 80016dc:	f003 0307 	and.w	r3, r3, #7
 80016e0:	607b      	str	r3, [r7, #4]
		if(temp < 4)
 80016e2:	687b      	ldr	r3, [r7, #4]
 80016e4:	2b03      	cmp	r3, #3
 80016e6:	d802      	bhi.n	80016ee <RCC_GetPCLK1Value+0x7e>
		{
			APB_Prescaler=1;
 80016e8:	2301      	movs	r3, #1
 80016ea:	60fb      	str	r3, [r7, #12]
 80016ec:	e005      	b.n	80016fa <RCC_GetPCLK1Value+0x8a>
		}
		else
		{
			APB_Prescaler=APB_PS[temp-4];
 80016ee:	687b      	ldr	r3, [r7, #4]
 80016f0:	3b04      	subs	r3, #4
 80016f2:	4a0c      	ldr	r2, [pc, #48]	@ (8001724 <RCC_GetPCLK1Value+0xb4>)
 80016f4:	f852 3023 	ldr.w	r3, [r2, r3, lsl #2]
 80016f8:	60fb      	str	r3, [r7, #12]
		}


		PCLK_SPEED=((SysClk/AHB_Prescaler)/APB_Prescaler);
 80016fa:	697a      	ldr	r2, [r7, #20]
 80016fc:	693b      	ldr	r3, [r7, #16]
 80016fe:	fbb2 f2f3 	udiv	r2, r2, r3
 8001702:	68fb      	ldr	r3, [r7, #12]
 8001704:	fbb2 f3f3 	udiv	r3, r2, r3
 8001708:	603b      	str	r3, [r7, #0]

		return PCLK_SPEED;
 800170a:	683b      	ldr	r3, [r7, #0]

}
 800170c:	4618      	mov	r0, r3
 800170e:	3718      	adds	r7, #24
 8001710:	46bd      	mov	sp, r7
 8001712:	bd80      	pop	{r7, pc}
 8001714:	00f42400 	.word	0x00f42400
 8001718:	007a1200 	.word	0x007a1200
 800171c:	40023800 	.word	0x40023800
 8001720:	20000000 	.word	0x20000000
 8001724:	20000020 	.word	0x20000020

08001728 <std>:
 8001728:	2300      	movs	r3, #0
 800172a:	b510      	push	{r4, lr}
 800172c:	4604      	mov	r4, r0
 800172e:	e9c0 3300 	strd	r3, r3, [r0]
 8001732:	e9c0 3304 	strd	r3, r3, [r0, #16]
 8001736:	6083      	str	r3, [r0, #8]
 8001738:	8181      	strh	r1, [r0, #12]
 800173a:	6643      	str	r3, [r0, #100]	@ 0x64
 800173c:	81c2      	strh	r2, [r0, #14]
 800173e:	6183      	str	r3, [r0, #24]
 8001740:	4619      	mov	r1, r3
 8001742:	2208      	movs	r2, #8
 8001744:	305c      	adds	r0, #92	@ 0x5c
 8001746:	f000 f921 	bl	800198c <memset>
 800174a:	4b0d      	ldr	r3, [pc, #52]	@ (8001780 <std+0x58>)
 800174c:	6263      	str	r3, [r4, #36]	@ 0x24
 800174e:	4b0d      	ldr	r3, [pc, #52]	@ (8001784 <std+0x5c>)
 8001750:	62a3      	str	r3, [r4, #40]	@ 0x28
 8001752:	4b0d      	ldr	r3, [pc, #52]	@ (8001788 <std+0x60>)
 8001754:	62e3      	str	r3, [r4, #44]	@ 0x2c
 8001756:	4b0d      	ldr	r3, [pc, #52]	@ (800178c <std+0x64>)
 8001758:	6323      	str	r3, [r4, #48]	@ 0x30
 800175a:	4b0d      	ldr	r3, [pc, #52]	@ (8001790 <std+0x68>)
 800175c:	6224      	str	r4, [r4, #32]
 800175e:	429c      	cmp	r4, r3
 8001760:	d006      	beq.n	8001770 <std+0x48>
 8001762:	f103 0268 	add.w	r2, r3, #104	@ 0x68
 8001766:	4294      	cmp	r4, r2
 8001768:	d002      	beq.n	8001770 <std+0x48>
 800176a:	33d0      	adds	r3, #208	@ 0xd0
 800176c:	429c      	cmp	r4, r3
 800176e:	d105      	bne.n	800177c <std+0x54>
 8001770:	f104 0058 	add.w	r0, r4, #88	@ 0x58
 8001774:	e8bd 4010 	ldmia.w	sp!, {r4, lr}
 8001778:	f000 b93a 	b.w	80019f0 <__retarget_lock_init_recursive>
 800177c:	bd10      	pop	{r4, pc}
 800177e:	bf00      	nop
 8001780:	08002239 	.word	0x08002239
 8001784:	0800225b 	.word	0x0800225b
 8001788:	08002293 	.word	0x08002293
 800178c:	080022b7 	.word	0x080022b7
 8001790:	200000f8 	.word	0x200000f8

08001794 <stdio_exit_handler>:
 8001794:	4a02      	ldr	r2, [pc, #8]	@ (80017a0 <stdio_exit_handler+0xc>)
 8001796:	4903      	ldr	r1, [pc, #12]	@ (80017a4 <stdio_exit_handler+0x10>)
 8001798:	4803      	ldr	r0, [pc, #12]	@ (80017a8 <stdio_exit_handler+0x14>)
 800179a:	f000 b869 	b.w	8001870 <_fwalk_sglue>
 800179e:	bf00      	nop
 80017a0:	20000034 	.word	0x20000034
 80017a4:	080021d1 	.word	0x080021d1
 80017a8:	20000044 	.word	0x20000044

080017ac <cleanup_stdio>:
 80017ac:	6841      	ldr	r1, [r0, #4]
 80017ae:	4b0c      	ldr	r3, [pc, #48]	@ (80017e0 <cleanup_stdio+0x34>)
 80017b0:	4299      	cmp	r1, r3
 80017b2:	b510      	push	{r4, lr}
 80017b4:	4604      	mov	r4, r0
 80017b6:	d001      	beq.n	80017bc <cleanup_stdio+0x10>
 80017b8:	f000 fd0a 	bl	80021d0 <_fflush_r>
 80017bc:	68a1      	ldr	r1, [r4, #8]
 80017be:	4b09      	ldr	r3, [pc, #36]	@ (80017e4 <cleanup_stdio+0x38>)
 80017c0:	4299      	cmp	r1, r3
 80017c2:	d002      	beq.n	80017ca <cleanup_stdio+0x1e>
 80017c4:	4620      	mov	r0, r4
 80017c6:	f000 fd03 	bl	80021d0 <_fflush_r>
 80017ca:	68e1      	ldr	r1, [r4, #12]
 80017cc:	4b06      	ldr	r3, [pc, #24]	@ (80017e8 <cleanup_stdio+0x3c>)
 80017ce:	4299      	cmp	r1, r3
 80017d0:	d004      	beq.n	80017dc <cleanup_stdio+0x30>
 80017d2:	4620      	mov	r0, r4
 80017d4:	e8bd 4010 	ldmia.w	sp!, {r4, lr}
 80017d8:	f000 bcfa 	b.w	80021d0 <_fflush_r>
 80017dc:	bd10      	pop	{r4, pc}
 80017de:	bf00      	nop
 80017e0:	200000f8 	.word	0x200000f8
 80017e4:	20000160 	.word	0x20000160
 80017e8:	200001c8 	.word	0x200001c8

080017ec <global_stdio_init.part.0>:
 80017ec:	b510      	push	{r4, lr}
 80017ee:	4b0b      	ldr	r3, [pc, #44]	@ (800181c <global_stdio_init.part.0+0x30>)
 80017f0:	4c0b      	ldr	r4, [pc, #44]	@ (8001820 <global_stdio_init.part.0+0x34>)
 80017f2:	4a0c      	ldr	r2, [pc, #48]	@ (8001824 <global_stdio_init.part.0+0x38>)
 80017f4:	601a      	str	r2, [r3, #0]
 80017f6:	4620      	mov	r0, r4
 80017f8:	2200      	movs	r2, #0
 80017fa:	2104      	movs	r1, #4
 80017fc:	f7ff ff94 	bl	8001728 <std>
 8001800:	f104 0068 	add.w	r0, r4, #104	@ 0x68
 8001804:	2201      	movs	r2, #1
 8001806:	2109      	movs	r1, #9
 8001808:	f7ff ff8e 	bl	8001728 <std>
 800180c:	f104 00d0 	add.w	r0, r4, #208	@ 0xd0
 8001810:	2202      	movs	r2, #2
 8001812:	e8bd 4010 	ldmia.w	sp!, {r4, lr}
 8001816:	2112      	movs	r1, #18
 8001818:	f7ff bf86 	b.w	8001728 <std>
 800181c:	20000230 	.word	0x20000230
 8001820:	200000f8 	.word	0x200000f8
 8001824:	08001795 	.word	0x08001795

08001828 <__sfp_lock_acquire>:
 8001828:	4801      	ldr	r0, [pc, #4]	@ (8001830 <__sfp_lock_acquire+0x8>)
 800182a:	f000 b8e2 	b.w	80019f2 <__retarget_lock_acquire_recursive>
 800182e:	bf00      	nop
 8001830:	20000235 	.word	0x20000235

08001834 <__sfp_lock_release>:
 8001834:	4801      	ldr	r0, [pc, #4]	@ (800183c <__sfp_lock_release+0x8>)
 8001836:	f000 b8dd 	b.w	80019f4 <__retarget_lock_release_recursive>
 800183a:	bf00      	nop
 800183c:	20000235 	.word	0x20000235

08001840 <__sinit>:
 8001840:	b510      	push	{r4, lr}
 8001842:	4604      	mov	r4, r0
 8001844:	f7ff fff0 	bl	8001828 <__sfp_lock_acquire>
 8001848:	6a23      	ldr	r3, [r4, #32]
 800184a:	b11b      	cbz	r3, 8001854 <__sinit+0x14>
 800184c:	e8bd 4010 	ldmia.w	sp!, {r4, lr}
 8001850:	f7ff bff0 	b.w	8001834 <__sfp_lock_release>
 8001854:	4b04      	ldr	r3, [pc, #16]	@ (8001868 <__sinit+0x28>)
 8001856:	6223      	str	r3, [r4, #32]
 8001858:	4b04      	ldr	r3, [pc, #16]	@ (800186c <__sinit+0x2c>)
 800185a:	681b      	ldr	r3, [r3, #0]
 800185c:	2b00      	cmp	r3, #0
 800185e:	d1f5      	bne.n	800184c <__sinit+0xc>
 8001860:	f7ff ffc4 	bl	80017ec <global_stdio_init.part.0>
 8001864:	e7f2      	b.n	800184c <__sinit+0xc>
 8001866:	bf00      	nop
 8001868:	080017ad 	.word	0x080017ad
 800186c:	20000230 	.word	0x20000230

08001870 <_fwalk_sglue>:
 8001870:	e92d 43f8 	stmdb	sp!, {r3, r4, r5, r6, r7, r8, r9, lr}
 8001874:	4607      	mov	r7, r0
 8001876:	4688      	mov	r8, r1
 8001878:	4614      	mov	r4, r2
 800187a:	2600      	movs	r6, #0
 800187c:	e9d4 9501 	ldrd	r9, r5, [r4, #4]
 8001880:	f1b9 0901 	subs.w	r9, r9, #1
 8001884:	d505      	bpl.n	8001892 <_fwalk_sglue+0x22>
 8001886:	6824      	ldr	r4, [r4, #0]
 8001888:	2c00      	cmp	r4, #0
 800188a:	d1f7      	bne.n	800187c <_fwalk_sglue+0xc>
 800188c:	4630      	mov	r0, r6
 800188e:	e8bd 83f8 	ldmia.w	sp!, {r3, r4, r5, r6, r7, r8, r9, pc}
 8001892:	89ab      	ldrh	r3, [r5, #12]
 8001894:	2b01      	cmp	r3, #1
 8001896:	d907      	bls.n	80018a8 <_fwalk_sglue+0x38>
 8001898:	f9b5 300e 	ldrsh.w	r3, [r5, #14]
 800189c:	3301      	adds	r3, #1
 800189e:	d003      	beq.n	80018a8 <_fwalk_sglue+0x38>
 80018a0:	4629      	mov	r1, r5
 80018a2:	4638      	mov	r0, r7
 80018a4:	47c0      	blx	r8
 80018a6:	4306      	orrs	r6, r0
 80018a8:	3568      	adds	r5, #104	@ 0x68
 80018aa:	e7e9      	b.n	8001880 <_fwalk_sglue+0x10>

080018ac <iprintf>:
 80018ac:	b40f      	push	{r0, r1, r2, r3}
 80018ae:	b507      	push	{r0, r1, r2, lr}
 80018b0:	4906      	ldr	r1, [pc, #24]	@ (80018cc <iprintf+0x20>)
 80018b2:	ab04      	add	r3, sp, #16
 80018b4:	6808      	ldr	r0, [r1, #0]
 80018b6:	f853 2b04 	ldr.w	r2, [r3], #4
 80018ba:	6881      	ldr	r1, [r0, #8]
 80018bc:	9301      	str	r3, [sp, #4]
 80018be:	f000 f8c1 	bl	8001a44 <_vfiprintf_r>
 80018c2:	b003      	add	sp, #12
 80018c4:	f85d eb04 	ldr.w	lr, [sp], #4
 80018c8:	b004      	add	sp, #16
 80018ca:	4770      	bx	lr
 80018cc:	20000040 	.word	0x20000040

080018d0 <_puts_r>:
 80018d0:	6a03      	ldr	r3, [r0, #32]
 80018d2:	b570      	push	{r4, r5, r6, lr}
 80018d4:	6884      	ldr	r4, [r0, #8]
 80018d6:	4605      	mov	r5, r0
 80018d8:	460e      	mov	r6, r1
 80018da:	b90b      	cbnz	r3, 80018e0 <_puts_r+0x10>
 80018dc:	f7ff ffb0 	bl	8001840 <__sinit>
 80018e0:	6e63      	ldr	r3, [r4, #100]	@ 0x64
 80018e2:	07db      	lsls	r3, r3, #31
 80018e4:	d405      	bmi.n	80018f2 <_puts_r+0x22>
 80018e6:	89a3      	ldrh	r3, [r4, #12]
 80018e8:	0598      	lsls	r0, r3, #22
 80018ea:	d402      	bmi.n	80018f2 <_puts_r+0x22>
 80018ec:	6da0      	ldr	r0, [r4, #88]	@ 0x58
 80018ee:	f000 f880 	bl	80019f2 <__retarget_lock_acquire_recursive>
 80018f2:	89a3      	ldrh	r3, [r4, #12]
 80018f4:	0719      	lsls	r1, r3, #28
 80018f6:	d502      	bpl.n	80018fe <_puts_r+0x2e>
 80018f8:	6923      	ldr	r3, [r4, #16]
 80018fa:	2b00      	cmp	r3, #0
 80018fc:	d135      	bne.n	800196a <_puts_r+0x9a>
 80018fe:	4621      	mov	r1, r4
 8001900:	4628      	mov	r0, r5
 8001902:	f000 fd1b 	bl	800233c <__swsetup_r>
 8001906:	b380      	cbz	r0, 800196a <_puts_r+0x9a>
 8001908:	f04f 35ff 	mov.w	r5, #4294967295	@ 0xffffffff
 800190c:	6e63      	ldr	r3, [r4, #100]	@ 0x64
 800190e:	07da      	lsls	r2, r3, #31
 8001910:	d405      	bmi.n	800191e <_puts_r+0x4e>
 8001912:	89a3      	ldrh	r3, [r4, #12]
 8001914:	059b      	lsls	r3, r3, #22
 8001916:	d402      	bmi.n	800191e <_puts_r+0x4e>
 8001918:	6da0      	ldr	r0, [r4, #88]	@ 0x58
 800191a:	f000 f86b 	bl	80019f4 <__retarget_lock_release_recursive>
 800191e:	4628      	mov	r0, r5
 8001920:	bd70      	pop	{r4, r5, r6, pc}
 8001922:	2b00      	cmp	r3, #0
 8001924:	da04      	bge.n	8001930 <_puts_r+0x60>
 8001926:	69a2      	ldr	r2, [r4, #24]
 8001928:	429a      	cmp	r2, r3
 800192a:	dc17      	bgt.n	800195c <_puts_r+0x8c>
 800192c:	290a      	cmp	r1, #10
 800192e:	d015      	beq.n	800195c <_puts_r+0x8c>
 8001930:	6823      	ldr	r3, [r4, #0]
 8001932:	1c5a      	adds	r2, r3, #1
 8001934:	6022      	str	r2, [r4, #0]
 8001936:	7019      	strb	r1, [r3, #0]
 8001938:	68a3      	ldr	r3, [r4, #8]
 800193a:	f816 1f01 	ldrb.w	r1, [r6, #1]!
 800193e:	3b01      	subs	r3, #1
 8001940:	60a3      	str	r3, [r4, #8]
 8001942:	2900      	cmp	r1, #0
 8001944:	d1ed      	bne.n	8001922 <_puts_r+0x52>
 8001946:	2b00      	cmp	r3, #0
 8001948:	da11      	bge.n	800196e <_puts_r+0x9e>
 800194a:	4622      	mov	r2, r4
 800194c:	210a      	movs	r1, #10
 800194e:	4628      	mov	r0, r5
 8001950:	f000 fcb5 	bl	80022be <__swbuf_r>
 8001954:	3001      	adds	r0, #1
 8001956:	d0d7      	beq.n	8001908 <_puts_r+0x38>
 8001958:	250a      	movs	r5, #10
 800195a:	e7d7      	b.n	800190c <_puts_r+0x3c>
 800195c:	4622      	mov	r2, r4
 800195e:	4628      	mov	r0, r5
 8001960:	f000 fcad 	bl	80022be <__swbuf_r>
 8001964:	3001      	adds	r0, #1
 8001966:	d1e7      	bne.n	8001938 <_puts_r+0x68>
 8001968:	e7ce      	b.n	8001908 <_puts_r+0x38>
 800196a:	3e01      	subs	r6, #1
 800196c:	e7e4      	b.n	8001938 <_puts_r+0x68>
 800196e:	6823      	ldr	r3, [r4, #0]
 8001970:	1c5a      	adds	r2, r3, #1
 8001972:	6022      	str	r2, [r4, #0]
 8001974:	220a      	movs	r2, #10
 8001976:	701a      	strb	r2, [r3, #0]
 8001978:	e7ee      	b.n	8001958 <_puts_r+0x88>
	...

0800197c <puts>:
 800197c:	4b02      	ldr	r3, [pc, #8]	@ (8001988 <puts+0xc>)
 800197e:	4601      	mov	r1, r0
 8001980:	6818      	ldr	r0, [r3, #0]
 8001982:	f7ff bfa5 	b.w	80018d0 <_puts_r>
 8001986:	bf00      	nop
 8001988:	20000040 	.word	0x20000040

0800198c <memset>:
 800198c:	4402      	add	r2, r0
 800198e:	4603      	mov	r3, r0
 8001990:	4293      	cmp	r3, r2
 8001992:	d100      	bne.n	8001996 <memset+0xa>
 8001994:	4770      	bx	lr
 8001996:	f803 1b01 	strb.w	r1, [r3], #1
 800199a:	e7f9      	b.n	8001990 <memset+0x4>

0800199c <__errno>:
 800199c:	4b01      	ldr	r3, [pc, #4]	@ (80019a4 <__errno+0x8>)
 800199e:	6818      	ldr	r0, [r3, #0]
 80019a0:	4770      	bx	lr
 80019a2:	bf00      	nop
 80019a4:	20000040 	.word	0x20000040

080019a8 <__libc_init_array>:
 80019a8:	b570      	push	{r4, r5, r6, lr}
 80019aa:	4d0d      	ldr	r5, [pc, #52]	@ (80019e0 <__libc_init_array+0x38>)
 80019ac:	4c0d      	ldr	r4, [pc, #52]	@ (80019e4 <__libc_init_array+0x3c>)
 80019ae:	1b64      	subs	r4, r4, r5
 80019b0:	10a4      	asrs	r4, r4, #2
 80019b2:	2600      	movs	r6, #0
 80019b4:	42a6      	cmp	r6, r4
 80019b6:	d109      	bne.n	80019cc <__libc_init_array+0x24>
 80019b8:	4d0b      	ldr	r5, [pc, #44]	@ (80019e8 <__libc_init_array+0x40>)
 80019ba:	4c0c      	ldr	r4, [pc, #48]	@ (80019ec <__libc_init_array+0x44>)
 80019bc:	f000 fe38 	bl	8002630 <_init>
 80019c0:	1b64      	subs	r4, r4, r5
 80019c2:	10a4      	asrs	r4, r4, #2
 80019c4:	2600      	movs	r6, #0
 80019c6:	42a6      	cmp	r6, r4
 80019c8:	d105      	bne.n	80019d6 <__libc_init_array+0x2e>
 80019ca:	bd70      	pop	{r4, r5, r6, pc}
 80019cc:	f855 3b04 	ldr.w	r3, [r5], #4
 80019d0:	4798      	blx	r3
 80019d2:	3601      	adds	r6, #1
 80019d4:	e7ee      	b.n	80019b4 <__libc_init_array+0xc>
 80019d6:	f855 3b04 	ldr.w	r3, [r5], #4
 80019da:	4798      	blx	r3
 80019dc:	3601      	adds	r6, #1
 80019de:	e7f2      	b.n	80019c6 <__libc_init_array+0x1e>
 80019e0:	0800272c 	.word	0x0800272c
 80019e4:	0800272c 	.word	0x0800272c
 80019e8:	0800272c 	.word	0x0800272c
 80019ec:	08002730 	.word	0x08002730

080019f0 <__retarget_lock_init_recursive>:
 80019f0:	4770      	bx	lr

080019f2 <__retarget_lock_acquire_recursive>:
 80019f2:	4770      	bx	lr

080019f4 <__retarget_lock_release_recursive>:
 80019f4:	4770      	bx	lr

080019f6 <__sfputc_r>:
 80019f6:	6893      	ldr	r3, [r2, #8]
 80019f8:	3b01      	subs	r3, #1
 80019fa:	2b00      	cmp	r3, #0
 80019fc:	b410      	push	{r4}
 80019fe:	6093      	str	r3, [r2, #8]
 8001a00:	da07      	bge.n	8001a12 <__sfputc_r+0x1c>
 8001a02:	6994      	ldr	r4, [r2, #24]
 8001a04:	42a3      	cmp	r3, r4
 8001a06:	db01      	blt.n	8001a0c <__sfputc_r+0x16>
 8001a08:	290a      	cmp	r1, #10
 8001a0a:	d102      	bne.n	8001a12 <__sfputc_r+0x1c>
 8001a0c:	bc10      	pop	{r4}
 8001a0e:	f000 bc56 	b.w	80022be <__swbuf_r>
 8001a12:	6813      	ldr	r3, [r2, #0]
 8001a14:	1c58      	adds	r0, r3, #1
 8001a16:	6010      	str	r0, [r2, #0]
 8001a18:	7019      	strb	r1, [r3, #0]
 8001a1a:	4608      	mov	r0, r1
 8001a1c:	bc10      	pop	{r4}
 8001a1e:	4770      	bx	lr

08001a20 <__sfputs_r>:
 8001a20:	b5f8      	push	{r3, r4, r5, r6, r7, lr}
 8001a22:	4606      	mov	r6, r0
 8001a24:	460f      	mov	r7, r1
 8001a26:	4614      	mov	r4, r2
 8001a28:	18d5      	adds	r5, r2, r3
 8001a2a:	42ac      	cmp	r4, r5
 8001a2c:	d101      	bne.n	8001a32 <__sfputs_r+0x12>
 8001a2e:	2000      	movs	r0, #0
 8001a30:	e007      	b.n	8001a42 <__sfputs_r+0x22>
 8001a32:	f814 1b01 	ldrb.w	r1, [r4], #1
 8001a36:	463a      	mov	r2, r7
 8001a38:	4630      	mov	r0, r6
 8001a3a:	f7ff ffdc 	bl	80019f6 <__sfputc_r>
 8001a3e:	1c43      	adds	r3, r0, #1
 8001a40:	d1f3      	bne.n	8001a2a <__sfputs_r+0xa>
 8001a42:	bdf8      	pop	{r3, r4, r5, r6, r7, pc}

08001a44 <_vfiprintf_r>:
 8001a44:	e92d 4ff0 	stmdb	sp!, {r4, r5, r6, r7, r8, r9, sl, fp, lr}
 8001a48:	460d      	mov	r5, r1
 8001a4a:	b09d      	sub	sp, #116	@ 0x74
 8001a4c:	4614      	mov	r4, r2
 8001a4e:	4698      	mov	r8, r3
 8001a50:	4606      	mov	r6, r0
 8001a52:	b118      	cbz	r0, 8001a5c <_vfiprintf_r+0x18>
 8001a54:	6a03      	ldr	r3, [r0, #32]
 8001a56:	b90b      	cbnz	r3, 8001a5c <_vfiprintf_r+0x18>
 8001a58:	f7ff fef2 	bl	8001840 <__sinit>
 8001a5c:	6e6b      	ldr	r3, [r5, #100]	@ 0x64
 8001a5e:	07d9      	lsls	r1, r3, #31
 8001a60:	d405      	bmi.n	8001a6e <_vfiprintf_r+0x2a>
 8001a62:	89ab      	ldrh	r3, [r5, #12]
 8001a64:	059a      	lsls	r2, r3, #22
 8001a66:	d402      	bmi.n	8001a6e <_vfiprintf_r+0x2a>
 8001a68:	6da8      	ldr	r0, [r5, #88]	@ 0x58
 8001a6a:	f7ff ffc2 	bl	80019f2 <__retarget_lock_acquire_recursive>
 8001a6e:	89ab      	ldrh	r3, [r5, #12]
 8001a70:	071b      	lsls	r3, r3, #28
 8001a72:	d501      	bpl.n	8001a78 <_vfiprintf_r+0x34>
 8001a74:	692b      	ldr	r3, [r5, #16]
 8001a76:	b99b      	cbnz	r3, 8001aa0 <_vfiprintf_r+0x5c>
 8001a78:	4629      	mov	r1, r5
 8001a7a:	4630      	mov	r0, r6
 8001a7c:	f000 fc5e 	bl	800233c <__swsetup_r>
 8001a80:	b170      	cbz	r0, 8001aa0 <_vfiprintf_r+0x5c>
 8001a82:	6e6b      	ldr	r3, [r5, #100]	@ 0x64
 8001a84:	07dc      	lsls	r4, r3, #31
 8001a86:	d504      	bpl.n	8001a92 <_vfiprintf_r+0x4e>
 8001a88:	f04f 30ff 	mov.w	r0, #4294967295	@ 0xffffffff
 8001a8c:	b01d      	add	sp, #116	@ 0x74
 8001a8e:	e8bd 8ff0 	ldmia.w	sp!, {r4, r5, r6, r7, r8, r9, sl, fp, pc}
 8001a92:	89ab      	ldrh	r3, [r5, #12]
 8001a94:	0598      	lsls	r0, r3, #22
 8001a96:	d4f7      	bmi.n	8001a88 <_vfiprintf_r+0x44>
 8001a98:	6da8      	ldr	r0, [r5, #88]	@ 0x58
 8001a9a:	f7ff ffab 	bl	80019f4 <__retarget_lock_release_recursive>
 8001a9e:	e7f3      	b.n	8001a88 <_vfiprintf_r+0x44>
 8001aa0:	2300      	movs	r3, #0
 8001aa2:	9309      	str	r3, [sp, #36]	@ 0x24
 8001aa4:	2320      	movs	r3, #32
 8001aa6:	f88d 3029 	strb.w	r3, [sp, #41]	@ 0x29
 8001aaa:	f8cd 800c 	str.w	r8, [sp, #12]
 8001aae:	2330      	movs	r3, #48	@ 0x30
 8001ab0:	f8df 81ac 	ldr.w	r8, [pc, #428]	@ 8001c60 <_vfiprintf_r+0x21c>
 8001ab4:	f88d 302a 	strb.w	r3, [sp, #42]	@ 0x2a
 8001ab8:	f04f 0901 	mov.w	r9, #1
 8001abc:	4623      	mov	r3, r4
 8001abe:	469a      	mov	sl, r3
 8001ac0:	f813 2b01 	ldrb.w	r2, [r3], #1
 8001ac4:	b10a      	cbz	r2, 8001aca <_vfiprintf_r+0x86>
 8001ac6:	2a25      	cmp	r2, #37	@ 0x25
 8001ac8:	d1f9      	bne.n	8001abe <_vfiprintf_r+0x7a>
 8001aca:	ebba 0b04 	subs.w	fp, sl, r4
 8001ace:	d00b      	beq.n	8001ae8 <_vfiprintf_r+0xa4>
 8001ad0:	465b      	mov	r3, fp
 8001ad2:	4622      	mov	r2, r4
 8001ad4:	4629      	mov	r1, r5
 8001ad6:	4630      	mov	r0, r6
 8001ad8:	f7ff ffa2 	bl	8001a20 <__sfputs_r>
 8001adc:	3001      	adds	r0, #1
 8001ade:	f000 80a7 	beq.w	8001c30 <_vfiprintf_r+0x1ec>
 8001ae2:	9a09      	ldr	r2, [sp, #36]	@ 0x24
 8001ae4:	445a      	add	r2, fp
 8001ae6:	9209      	str	r2, [sp, #36]	@ 0x24
 8001ae8:	f89a 3000 	ldrb.w	r3, [sl]
 8001aec:	2b00      	cmp	r3, #0
 8001aee:	f000 809f 	beq.w	8001c30 <_vfiprintf_r+0x1ec>
 8001af2:	2300      	movs	r3, #0
 8001af4:	f04f 32ff 	mov.w	r2, #4294967295	@ 0xffffffff
 8001af8:	e9cd 2305 	strd	r2, r3, [sp, #20]
 8001afc:	f10a 0a01 	add.w	sl, sl, #1
 8001b00:	9304      	str	r3, [sp, #16]
 8001b02:	9307      	str	r3, [sp, #28]
 8001b04:	f88d 3053 	strb.w	r3, [sp, #83]	@ 0x53
 8001b08:	931a      	str	r3, [sp, #104]	@ 0x68
 8001b0a:	4654      	mov	r4, sl
 8001b0c:	2205      	movs	r2, #5
 8001b0e:	f814 1b01 	ldrb.w	r1, [r4], #1
 8001b12:	4853      	ldr	r0, [pc, #332]	@ (8001c60 <_vfiprintf_r+0x21c>)
 8001b14:	f7fe fb5c 	bl	80001d0 <memchr>
 8001b18:	9a04      	ldr	r2, [sp, #16]
 8001b1a:	b9d8      	cbnz	r0, 8001b54 <_vfiprintf_r+0x110>
 8001b1c:	06d1      	lsls	r1, r2, #27
 8001b1e:	bf44      	itt	mi
 8001b20:	2320      	movmi	r3, #32
 8001b22:	f88d 3053 	strbmi.w	r3, [sp, #83]	@ 0x53
 8001b26:	0713      	lsls	r3, r2, #28
 8001b28:	bf44      	itt	mi
 8001b2a:	232b      	movmi	r3, #43	@ 0x2b
 8001b2c:	f88d 3053 	strbmi.w	r3, [sp, #83]	@ 0x53
 8001b30:	f89a 3000 	ldrb.w	r3, [sl]
 8001b34:	2b2a      	cmp	r3, #42	@ 0x2a
 8001b36:	d015      	beq.n	8001b64 <_vfiprintf_r+0x120>
 8001b38:	9a07      	ldr	r2, [sp, #28]
 8001b3a:	4654      	mov	r4, sl
 8001b3c:	2000      	movs	r0, #0
 8001b3e:	f04f 0c0a 	mov.w	ip, #10
 8001b42:	4621      	mov	r1, r4
 8001b44:	f811 3b01 	ldrb.w	r3, [r1], #1
 8001b48:	3b30      	subs	r3, #48	@ 0x30
 8001b4a:	2b09      	cmp	r3, #9
 8001b4c:	d94b      	bls.n	8001be6 <_vfiprintf_r+0x1a2>
 8001b4e:	b1b0      	cbz	r0, 8001b7e <_vfiprintf_r+0x13a>
 8001b50:	9207      	str	r2, [sp, #28]
 8001b52:	e014      	b.n	8001b7e <_vfiprintf_r+0x13a>
 8001b54:	eba0 0308 	sub.w	r3, r0, r8
 8001b58:	fa09 f303 	lsl.w	r3, r9, r3
 8001b5c:	4313      	orrs	r3, r2
 8001b5e:	9304      	str	r3, [sp, #16]
 8001b60:	46a2      	mov	sl, r4
 8001b62:	e7d2      	b.n	8001b0a <_vfiprintf_r+0xc6>
 8001b64:	9b03      	ldr	r3, [sp, #12]
 8001b66:	1d19      	adds	r1, r3, #4
 8001b68:	681b      	ldr	r3, [r3, #0]
 8001b6a:	9103      	str	r1, [sp, #12]
 8001b6c:	2b00      	cmp	r3, #0
 8001b6e:	bfbb      	ittet	lt
 8001b70:	425b      	neglt	r3, r3
 8001b72:	f042 0202 	orrlt.w	r2, r2, #2
 8001b76:	9307      	strge	r3, [sp, #28]
 8001b78:	9307      	strlt	r3, [sp, #28]
 8001b7a:	bfb8      	it	lt
 8001b7c:	9204      	strlt	r2, [sp, #16]
 8001b7e:	7823      	ldrb	r3, [r4, #0]
 8001b80:	2b2e      	cmp	r3, #46	@ 0x2e
 8001b82:	d10a      	bne.n	8001b9a <_vfiprintf_r+0x156>
 8001b84:	7863      	ldrb	r3, [r4, #1]
 8001b86:	2b2a      	cmp	r3, #42	@ 0x2a
 8001b88:	d132      	bne.n	8001bf0 <_vfiprintf_r+0x1ac>
 8001b8a:	9b03      	ldr	r3, [sp, #12]
 8001b8c:	1d1a      	adds	r2, r3, #4
 8001b8e:	681b      	ldr	r3, [r3, #0]
 8001b90:	9203      	str	r2, [sp, #12]
 8001b92:	ea43 73e3 	orr.w	r3, r3, r3, asr #31
 8001b96:	3402      	adds	r4, #2
 8001b98:	9305      	str	r3, [sp, #20]
 8001b9a:	f8df a0c8 	ldr.w	sl, [pc, #200]	@ 8001c64 <_vfiprintf_r+0x220>
 8001b9e:	7821      	ldrb	r1, [r4, #0]
 8001ba0:	2203      	movs	r2, #3
 8001ba2:	4650      	mov	r0, sl
 8001ba4:	f7fe fb14 	bl	80001d0 <memchr>
 8001ba8:	b138      	cbz	r0, 8001bba <_vfiprintf_r+0x176>
 8001baa:	9b04      	ldr	r3, [sp, #16]
 8001bac:	eba0 000a 	sub.w	r0, r0, sl
 8001bb0:	2240      	movs	r2, #64	@ 0x40
 8001bb2:	4082      	lsls	r2, r0
 8001bb4:	4313      	orrs	r3, r2
 8001bb6:	3401      	adds	r4, #1
 8001bb8:	9304      	str	r3, [sp, #16]
 8001bba:	f814 1b01 	ldrb.w	r1, [r4], #1
 8001bbe:	482a      	ldr	r0, [pc, #168]	@ (8001c68 <_vfiprintf_r+0x224>)
 8001bc0:	f88d 1028 	strb.w	r1, [sp, #40]	@ 0x28
 8001bc4:	2206      	movs	r2, #6
 8001bc6:	f7fe fb03 	bl	80001d0 <memchr>
 8001bca:	2800      	cmp	r0, #0
 8001bcc:	d03f      	beq.n	8001c4e <_vfiprintf_r+0x20a>
 8001bce:	4b27      	ldr	r3, [pc, #156]	@ (8001c6c <_vfiprintf_r+0x228>)
 8001bd0:	bb1b      	cbnz	r3, 8001c1a <_vfiprintf_r+0x1d6>
 8001bd2:	9b03      	ldr	r3, [sp, #12]
 8001bd4:	3307      	adds	r3, #7
 8001bd6:	f023 0307 	bic.w	r3, r3, #7
 8001bda:	3308      	adds	r3, #8
 8001bdc:	9303      	str	r3, [sp, #12]
 8001bde:	9b09      	ldr	r3, [sp, #36]	@ 0x24
 8001be0:	443b      	add	r3, r7
 8001be2:	9309      	str	r3, [sp, #36]	@ 0x24
 8001be4:	e76a      	b.n	8001abc <_vfiprintf_r+0x78>
 8001be6:	fb0c 3202 	mla	r2, ip, r2, r3
 8001bea:	460c      	mov	r4, r1
 8001bec:	2001      	movs	r0, #1
 8001bee:	e7a8      	b.n	8001b42 <_vfiprintf_r+0xfe>
 8001bf0:	2300      	movs	r3, #0
 8001bf2:	3401      	adds	r4, #1
 8001bf4:	9305      	str	r3, [sp, #20]
 8001bf6:	4619      	mov	r1, r3
 8001bf8:	f04f 0c0a 	mov.w	ip, #10
 8001bfc:	4620      	mov	r0, r4
 8001bfe:	f810 2b01 	ldrb.w	r2, [r0], #1
 8001c02:	3a30      	subs	r2, #48	@ 0x30
 8001c04:	2a09      	cmp	r2, #9
 8001c06:	d903      	bls.n	8001c10 <_vfiprintf_r+0x1cc>
 8001c08:	2b00      	cmp	r3, #0
 8001c0a:	d0c6      	beq.n	8001b9a <_vfiprintf_r+0x156>
 8001c0c:	9105      	str	r1, [sp, #20]
 8001c0e:	e7c4      	b.n	8001b9a <_vfiprintf_r+0x156>
 8001c10:	fb0c 2101 	mla	r1, ip, r1, r2
 8001c14:	4604      	mov	r4, r0
 8001c16:	2301      	movs	r3, #1
 8001c18:	e7f0      	b.n	8001bfc <_vfiprintf_r+0x1b8>
 8001c1a:	ab03      	add	r3, sp, #12
 8001c1c:	9300      	str	r3, [sp, #0]
 8001c1e:	462a      	mov	r2, r5
 8001c20:	4b13      	ldr	r3, [pc, #76]	@ (8001c70 <_vfiprintf_r+0x22c>)
 8001c22:	a904      	add	r1, sp, #16
 8001c24:	4630      	mov	r0, r6
 8001c26:	f3af 8000 	nop.w
 8001c2a:	4607      	mov	r7, r0
 8001c2c:	1c78      	adds	r0, r7, #1
 8001c2e:	d1d6      	bne.n	8001bde <_vfiprintf_r+0x19a>
 8001c30:	6e6b      	ldr	r3, [r5, #100]	@ 0x64
 8001c32:	07d9      	lsls	r1, r3, #31
 8001c34:	d405      	bmi.n	8001c42 <_vfiprintf_r+0x1fe>
 8001c36:	89ab      	ldrh	r3, [r5, #12]
 8001c38:	059a      	lsls	r2, r3, #22
 8001c3a:	d402      	bmi.n	8001c42 <_vfiprintf_r+0x1fe>
 8001c3c:	6da8      	ldr	r0, [r5, #88]	@ 0x58
 8001c3e:	f7ff fed9 	bl	80019f4 <__retarget_lock_release_recursive>
 8001c42:	89ab      	ldrh	r3, [r5, #12]
 8001c44:	065b      	lsls	r3, r3, #25
 8001c46:	f53f af1f 	bmi.w	8001a88 <_vfiprintf_r+0x44>
 8001c4a:	9809      	ldr	r0, [sp, #36]	@ 0x24
 8001c4c:	e71e      	b.n	8001a8c <_vfiprintf_r+0x48>
 8001c4e:	ab03      	add	r3, sp, #12
 8001c50:	9300      	str	r3, [sp, #0]
 8001c52:	462a      	mov	r2, r5
 8001c54:	4b06      	ldr	r3, [pc, #24]	@ (8001c70 <_vfiprintf_r+0x22c>)
 8001c56:	a904      	add	r1, sp, #16
 8001c58:	4630      	mov	r0, r6
 8001c5a:	f000 f91b 	bl	8001e94 <_printf_i>
 8001c5e:	e7e4      	b.n	8001c2a <_vfiprintf_r+0x1e6>
 8001c60:	080026f0 	.word	0x080026f0
 8001c64:	080026f6 	.word	0x080026f6
 8001c68:	080026fa 	.word	0x080026fa
 8001c6c:	00000000 	.word	0x00000000
 8001c70:	08001a21 	.word	0x08001a21

08001c74 <sbrk_aligned>:
 8001c74:	b570      	push	{r4, r5, r6, lr}
 8001c76:	4e0f      	ldr	r6, [pc, #60]	@ (8001cb4 <sbrk_aligned+0x40>)
 8001c78:	460c      	mov	r4, r1
 8001c7a:	6831      	ldr	r1, [r6, #0]
 8001c7c:	4605      	mov	r5, r0
 8001c7e:	b911      	cbnz	r1, 8001c86 <sbrk_aligned+0x12>
 8001c80:	f000 fc48 	bl	8002514 <_sbrk_r>
 8001c84:	6030      	str	r0, [r6, #0]
 8001c86:	4621      	mov	r1, r4
 8001c88:	4628      	mov	r0, r5
 8001c8a:	f000 fc43 	bl	8002514 <_sbrk_r>
 8001c8e:	1c43      	adds	r3, r0, #1
 8001c90:	d103      	bne.n	8001c9a <sbrk_aligned+0x26>
 8001c92:	f04f 34ff 	mov.w	r4, #4294967295	@ 0xffffffff
 8001c96:	4620      	mov	r0, r4
 8001c98:	bd70      	pop	{r4, r5, r6, pc}
 8001c9a:	1cc4      	adds	r4, r0, #3
 8001c9c:	f024 0403 	bic.w	r4, r4, #3
 8001ca0:	42a0      	cmp	r0, r4
 8001ca2:	d0f8      	beq.n	8001c96 <sbrk_aligned+0x22>
 8001ca4:	1a21      	subs	r1, r4, r0
 8001ca6:	4628      	mov	r0, r5
 8001ca8:	f000 fc34 	bl	8002514 <_sbrk_r>
 8001cac:	3001      	adds	r0, #1
 8001cae:	d1f2      	bne.n	8001c96 <sbrk_aligned+0x22>
 8001cb0:	e7ef      	b.n	8001c92 <sbrk_aligned+0x1e>
 8001cb2:	bf00      	nop
 8001cb4:	20000238 	.word	0x20000238

08001cb8 <_malloc_r>:
 8001cb8:	e92d 43f8 	stmdb	sp!, {r3, r4, r5, r6, r7, r8, r9, lr}
 8001cbc:	1ccd      	adds	r5, r1, #3
 8001cbe:	f025 0503 	bic.w	r5, r5, #3
 8001cc2:	3508      	adds	r5, #8
 8001cc4:	2d0c      	cmp	r5, #12
 8001cc6:	bf38      	it	cc
 8001cc8:	250c      	movcc	r5, #12
 8001cca:	2d00      	cmp	r5, #0
 8001ccc:	4606      	mov	r6, r0
 8001cce:	db01      	blt.n	8001cd4 <_malloc_r+0x1c>
 8001cd0:	42a9      	cmp	r1, r5
 8001cd2:	d904      	bls.n	8001cde <_malloc_r+0x26>
 8001cd4:	230c      	movs	r3, #12
 8001cd6:	6033      	str	r3, [r6, #0]
 8001cd8:	2000      	movs	r0, #0
 8001cda:	e8bd 83f8 	ldmia.w	sp!, {r3, r4, r5, r6, r7, r8, r9, pc}
 8001cde:	f8df 80d4 	ldr.w	r8, [pc, #212]	@ 8001db4 <_malloc_r+0xfc>
 8001ce2:	f000 fa9d 	bl	8002220 <__malloc_lock>
 8001ce6:	f8d8 3000 	ldr.w	r3, [r8]
 8001cea:	461c      	mov	r4, r3
 8001cec:	bb44      	cbnz	r4, 8001d40 <_malloc_r+0x88>
 8001cee:	4629      	mov	r1, r5
 8001cf0:	4630      	mov	r0, r6
 8001cf2:	f7ff ffbf 	bl	8001c74 <sbrk_aligned>
 8001cf6:	1c43      	adds	r3, r0, #1
 8001cf8:	4604      	mov	r4, r0
 8001cfa:	d158      	bne.n	8001dae <_malloc_r+0xf6>
 8001cfc:	f8d8 4000 	ldr.w	r4, [r8]
 8001d00:	4627      	mov	r7, r4
 8001d02:	2f00      	cmp	r7, #0
 8001d04:	d143      	bne.n	8001d8e <_malloc_r+0xd6>
 8001d06:	2c00      	cmp	r4, #0
 8001d08:	d04b      	beq.n	8001da2 <_malloc_r+0xea>
 8001d0a:	6823      	ldr	r3, [r4, #0]
 8001d0c:	4639      	mov	r1, r7
 8001d0e:	4630      	mov	r0, r6
 8001d10:	eb04 0903 	add.w	r9, r4, r3
 8001d14:	f000 fbfe 	bl	8002514 <_sbrk_r>
 8001d18:	4581      	cmp	r9, r0
 8001d1a:	d142      	bne.n	8001da2 <_malloc_r+0xea>
 8001d1c:	6821      	ldr	r1, [r4, #0]
 8001d1e:	1a6d      	subs	r5, r5, r1
 8001d20:	4629      	mov	r1, r5
 8001d22:	4630      	mov	r0, r6
 8001d24:	f7ff ffa6 	bl	8001c74 <sbrk_aligned>
 8001d28:	3001      	adds	r0, #1
 8001d2a:	d03a      	beq.n	8001da2 <_malloc_r+0xea>
 8001d2c:	6823      	ldr	r3, [r4, #0]
 8001d2e:	442b      	add	r3, r5
 8001d30:	6023      	str	r3, [r4, #0]
 8001d32:	f8d8 3000 	ldr.w	r3, [r8]
 8001d36:	685a      	ldr	r2, [r3, #4]
 8001d38:	bb62      	cbnz	r2, 8001d94 <_malloc_r+0xdc>
 8001d3a:	f8c8 7000 	str.w	r7, [r8]
 8001d3e:	e00f      	b.n	8001d60 <_malloc_r+0xa8>
 8001d40:	6822      	ldr	r2, [r4, #0]
 8001d42:	1b52      	subs	r2, r2, r5
 8001d44:	d420      	bmi.n	8001d88 <_malloc_r+0xd0>
 8001d46:	2a0b      	cmp	r2, #11
 8001d48:	d917      	bls.n	8001d7a <_malloc_r+0xc2>
 8001d4a:	1961      	adds	r1, r4, r5
 8001d4c:	42a3      	cmp	r3, r4
 8001d4e:	6025      	str	r5, [r4, #0]
 8001d50:	bf18      	it	ne
 8001d52:	6059      	strne	r1, [r3, #4]
 8001d54:	6863      	ldr	r3, [r4, #4]
 8001d56:	bf08      	it	eq
 8001d58:	f8c8 1000 	streq.w	r1, [r8]
 8001d5c:	5162      	str	r2, [r4, r5]
 8001d5e:	604b      	str	r3, [r1, #4]
 8001d60:	4630      	mov	r0, r6
 8001d62:	f000 fa63 	bl	800222c <__malloc_unlock>
 8001d66:	f104 000b 	add.w	r0, r4, #11
 8001d6a:	1d23      	adds	r3, r4, #4
 8001d6c:	f020 0007 	bic.w	r0, r0, #7
 8001d70:	1ac2      	subs	r2, r0, r3
 8001d72:	bf1c      	itt	ne
 8001d74:	1a1b      	subne	r3, r3, r0
 8001d76:	50a3      	strne	r3, [r4, r2]
 8001d78:	e7af      	b.n	8001cda <_malloc_r+0x22>
 8001d7a:	6862      	ldr	r2, [r4, #4]
 8001d7c:	42a3      	cmp	r3, r4
 8001d7e:	bf0c      	ite	eq
 8001d80:	f8c8 2000 	streq.w	r2, [r8]
 8001d84:	605a      	strne	r2, [r3, #4]
 8001d86:	e7eb      	b.n	8001d60 <_malloc_r+0xa8>
 8001d88:	4623      	mov	r3, r4
 8001d8a:	6864      	ldr	r4, [r4, #4]
 8001d8c:	e7ae      	b.n	8001cec <_malloc_r+0x34>
 8001d8e:	463c      	mov	r4, r7
 8001d90:	687f      	ldr	r7, [r7, #4]
 8001d92:	e7b6      	b.n	8001d02 <_malloc_r+0x4a>
 8001d94:	461a      	mov	r2, r3
 8001d96:	685b      	ldr	r3, [r3, #4]
 8001d98:	42a3      	cmp	r3, r4
 8001d9a:	d1fb      	bne.n	8001d94 <_malloc_r+0xdc>
 8001d9c:	2300      	movs	r3, #0
 8001d9e:	6053      	str	r3, [r2, #4]
 8001da0:	e7de      	b.n	8001d60 <_malloc_r+0xa8>
 8001da2:	230c      	movs	r3, #12
 8001da4:	6033      	str	r3, [r6, #0]
 8001da6:	4630      	mov	r0, r6
 8001da8:	f000 fa40 	bl	800222c <__malloc_unlock>
 8001dac:	e794      	b.n	8001cd8 <_malloc_r+0x20>
 8001dae:	6005      	str	r5, [r0, #0]
 8001db0:	e7d6      	b.n	8001d60 <_malloc_r+0xa8>
 8001db2:	bf00      	nop
 8001db4:	2000023c 	.word	0x2000023c

08001db8 <_printf_common>:
 8001db8:	e92d 47f0 	stmdb	sp!, {r4, r5, r6, r7, r8, r9, sl, lr}
 8001dbc:	4616      	mov	r6, r2
 8001dbe:	4698      	mov	r8, r3
 8001dc0:	688a      	ldr	r2, [r1, #8]
 8001dc2:	690b      	ldr	r3, [r1, #16]
 8001dc4:	f8dd 9020 	ldr.w	r9, [sp, #32]
 8001dc8:	4293      	cmp	r3, r2
 8001dca:	bfb8      	it	lt
 8001dcc:	4613      	movlt	r3, r2
 8001dce:	6033      	str	r3, [r6, #0]
 8001dd0:	f891 2043 	ldrb.w	r2, [r1, #67]	@ 0x43
 8001dd4:	4607      	mov	r7, r0
 8001dd6:	460c      	mov	r4, r1
 8001dd8:	b10a      	cbz	r2, 8001dde <_printf_common+0x26>
 8001dda:	3301      	adds	r3, #1
 8001ddc:	6033      	str	r3, [r6, #0]
 8001dde:	6823      	ldr	r3, [r4, #0]
 8001de0:	0699      	lsls	r1, r3, #26
 8001de2:	bf42      	ittt	mi
 8001de4:	6833      	ldrmi	r3, [r6, #0]
 8001de6:	3302      	addmi	r3, #2
 8001de8:	6033      	strmi	r3, [r6, #0]
 8001dea:	6825      	ldr	r5, [r4, #0]
 8001dec:	f015 0506 	ands.w	r5, r5, #6
 8001df0:	d106      	bne.n	8001e00 <_printf_common+0x48>
 8001df2:	f104 0a19 	add.w	sl, r4, #25
 8001df6:	68e3      	ldr	r3, [r4, #12]
 8001df8:	6832      	ldr	r2, [r6, #0]
 8001dfa:	1a9b      	subs	r3, r3, r2
 8001dfc:	42ab      	cmp	r3, r5
 8001dfe:	dc26      	bgt.n	8001e4e <_printf_common+0x96>
 8001e00:	f894 3043 	ldrb.w	r3, [r4, #67]	@ 0x43
 8001e04:	6822      	ldr	r2, [r4, #0]
 8001e06:	3b00      	subs	r3, #0
 8001e08:	bf18      	it	ne
 8001e0a:	2301      	movne	r3, #1
 8001e0c:	0692      	lsls	r2, r2, #26
 8001e0e:	d42b      	bmi.n	8001e68 <_printf_common+0xb0>
 8001e10:	f104 0243 	add.w	r2, r4, #67	@ 0x43
 8001e14:	4641      	mov	r1, r8
 8001e16:	4638      	mov	r0, r7
 8001e18:	47c8      	blx	r9
 8001e1a:	3001      	adds	r0, #1
 8001e1c:	d01e      	beq.n	8001e5c <_printf_common+0xa4>
 8001e1e:	6823      	ldr	r3, [r4, #0]
 8001e20:	6922      	ldr	r2, [r4, #16]
 8001e22:	f003 0306 	and.w	r3, r3, #6
 8001e26:	2b04      	cmp	r3, #4
 8001e28:	bf02      	ittt	eq
 8001e2a:	68e5      	ldreq	r5, [r4, #12]
 8001e2c:	6833      	ldreq	r3, [r6, #0]
 8001e2e:	1aed      	subeq	r5, r5, r3
 8001e30:	68a3      	ldr	r3, [r4, #8]
 8001e32:	bf0c      	ite	eq
 8001e34:	ea25 75e5 	biceq.w	r5, r5, r5, asr #31
 8001e38:	2500      	movne	r5, #0
 8001e3a:	4293      	cmp	r3, r2
 8001e3c:	bfc4      	itt	gt
 8001e3e:	1a9b      	subgt	r3, r3, r2
 8001e40:	18ed      	addgt	r5, r5, r3
 8001e42:	2600      	movs	r6, #0
 8001e44:	341a      	adds	r4, #26
 8001e46:	42b5      	cmp	r5, r6
 8001e48:	d11a      	bne.n	8001e80 <_printf_common+0xc8>
 8001e4a:	2000      	movs	r0, #0
 8001e4c:	e008      	b.n	8001e60 <_printf_common+0xa8>
 8001e4e:	2301      	movs	r3, #1
 8001e50:	4652      	mov	r2, sl
 8001e52:	4641      	mov	r1, r8
 8001e54:	4638      	mov	r0, r7
 8001e56:	47c8      	blx	r9
 8001e58:	3001      	adds	r0, #1
 8001e5a:	d103      	bne.n	8001e64 <_printf_common+0xac>
 8001e5c:	f04f 30ff 	mov.w	r0, #4294967295	@ 0xffffffff
 8001e60:	e8bd 87f0 	ldmia.w	sp!, {r4, r5, r6, r7, r8, r9, sl, pc}
 8001e64:	3501      	adds	r5, #1
 8001e66:	e7c6      	b.n	8001df6 <_printf_common+0x3e>
 8001e68:	18e1      	adds	r1, r4, r3
 8001e6a:	1c5a      	adds	r2, r3, #1
 8001e6c:	2030      	movs	r0, #48	@ 0x30
 8001e6e:	f881 0043 	strb.w	r0, [r1, #67]	@ 0x43
 8001e72:	4422      	add	r2, r4
 8001e74:	f894 1045 	ldrb.w	r1, [r4, #69]	@ 0x45
 8001e78:	f882 1043 	strb.w	r1, [r2, #67]	@ 0x43
 8001e7c:	3302      	adds	r3, #2
 8001e7e:	e7c7      	b.n	8001e10 <_printf_common+0x58>
 8001e80:	2301      	movs	r3, #1
 8001e82:	4622      	mov	r2, r4
 8001e84:	4641      	mov	r1, r8
 8001e86:	4638      	mov	r0, r7
 8001e88:	47c8      	blx	r9
 8001e8a:	3001      	adds	r0, #1
 8001e8c:	d0e6      	beq.n	8001e5c <_printf_common+0xa4>
 8001e8e:	3601      	adds	r6, #1
 8001e90:	e7d9      	b.n	8001e46 <_printf_common+0x8e>
	...

08001e94 <_printf_i>:
 8001e94:	e92d 47ff 	stmdb	sp!, {r0, r1, r2, r3, r4, r5, r6, r7, r8, r9, sl, lr}
 8001e98:	7e0f      	ldrb	r7, [r1, #24]
 8001e9a:	9e0c      	ldr	r6, [sp, #48]	@ 0x30
 8001e9c:	2f78      	cmp	r7, #120	@ 0x78
 8001e9e:	4691      	mov	r9, r2
 8001ea0:	4680      	mov	r8, r0
 8001ea2:	460c      	mov	r4, r1
 8001ea4:	469a      	mov	sl, r3
 8001ea6:	f101 0243 	add.w	r2, r1, #67	@ 0x43
 8001eaa:	d807      	bhi.n	8001ebc <_printf_i+0x28>
 8001eac:	2f62      	cmp	r7, #98	@ 0x62
 8001eae:	d80a      	bhi.n	8001ec6 <_printf_i+0x32>
 8001eb0:	2f00      	cmp	r7, #0
 8001eb2:	f000 80d1 	beq.w	8002058 <_printf_i+0x1c4>
 8001eb6:	2f58      	cmp	r7, #88	@ 0x58
 8001eb8:	f000 80b8 	beq.w	800202c <_printf_i+0x198>
 8001ebc:	f104 0642 	add.w	r6, r4, #66	@ 0x42
 8001ec0:	f884 7042 	strb.w	r7, [r4, #66]	@ 0x42
 8001ec4:	e03a      	b.n	8001f3c <_printf_i+0xa8>
 8001ec6:	f1a7 0363 	sub.w	r3, r7, #99	@ 0x63
 8001eca:	2b15      	cmp	r3, #21
 8001ecc:	d8f6      	bhi.n	8001ebc <_printf_i+0x28>
 8001ece:	a101      	add	r1, pc, #4	@ (adr r1, 8001ed4 <_printf_i+0x40>)
 8001ed0:	f851 f023 	ldr.w	pc, [r1, r3, lsl #2]
 8001ed4:	08001f2d 	.word	0x08001f2d
 8001ed8:	08001f41 	.word	0x08001f41
 8001edc:	08001ebd 	.word	0x08001ebd
 8001ee0:	08001ebd 	.word	0x08001ebd
 8001ee4:	08001ebd 	.word	0x08001ebd
 8001ee8:	08001ebd 	.word	0x08001ebd
 8001eec:	08001f41 	.word	0x08001f41
 8001ef0:	08001ebd 	.word	0x08001ebd
 8001ef4:	08001ebd 	.word	0x08001ebd
 8001ef8:	08001ebd 	.word	0x08001ebd
 8001efc:	08001ebd 	.word	0x08001ebd
 8001f00:	0800203f 	.word	0x0800203f
 8001f04:	08001f6b 	.word	0x08001f6b
 8001f08:	08001ff9 	.word	0x08001ff9
 8001f0c:	08001ebd 	.word	0x08001ebd
 8001f10:	08001ebd 	.word	0x08001ebd
 8001f14:	08002061 	.word	0x08002061
 8001f18:	08001ebd 	.word	0x08001ebd
 8001f1c:	08001f6b 	.word	0x08001f6b
 8001f20:	08001ebd 	.word	0x08001ebd
 8001f24:	08001ebd 	.word	0x08001ebd
 8001f28:	08002001 	.word	0x08002001
 8001f2c:	6833      	ldr	r3, [r6, #0]
 8001f2e:	1d1a      	adds	r2, r3, #4
 8001f30:	681b      	ldr	r3, [r3, #0]
 8001f32:	6032      	str	r2, [r6, #0]
 8001f34:	f104 0642 	add.w	r6, r4, #66	@ 0x42
 8001f38:	f884 3042 	strb.w	r3, [r4, #66]	@ 0x42
 8001f3c:	2301      	movs	r3, #1
 8001f3e:	e09c      	b.n	800207a <_printf_i+0x1e6>
 8001f40:	6833      	ldr	r3, [r6, #0]
 8001f42:	6820      	ldr	r0, [r4, #0]
 8001f44:	1d19      	adds	r1, r3, #4
 8001f46:	6031      	str	r1, [r6, #0]
 8001f48:	0606      	lsls	r6, r0, #24
 8001f4a:	d501      	bpl.n	8001f50 <_printf_i+0xbc>
 8001f4c:	681d      	ldr	r5, [r3, #0]
 8001f4e:	e003      	b.n	8001f58 <_printf_i+0xc4>
 8001f50:	0645      	lsls	r5, r0, #25
 8001f52:	d5fb      	bpl.n	8001f4c <_printf_i+0xb8>
 8001f54:	f9b3 5000 	ldrsh.w	r5, [r3]
 8001f58:	2d00      	cmp	r5, #0
 8001f5a:	da03      	bge.n	8001f64 <_printf_i+0xd0>
 8001f5c:	232d      	movs	r3, #45	@ 0x2d
 8001f5e:	426d      	negs	r5, r5
 8001f60:	f884 3043 	strb.w	r3, [r4, #67]	@ 0x43
 8001f64:	4858      	ldr	r0, [pc, #352]	@ (80020c8 <_printf_i+0x234>)
 8001f66:	230a      	movs	r3, #10
 8001f68:	e011      	b.n	8001f8e <_printf_i+0xfa>
 8001f6a:	6821      	ldr	r1, [r4, #0]
 8001f6c:	6833      	ldr	r3, [r6, #0]
 8001f6e:	0608      	lsls	r0, r1, #24
 8001f70:	f853 5b04 	ldr.w	r5, [r3], #4
 8001f74:	d402      	bmi.n	8001f7c <_printf_i+0xe8>
 8001f76:	0649      	lsls	r1, r1, #25
 8001f78:	bf48      	it	mi
 8001f7a:	b2ad      	uxthmi	r5, r5
 8001f7c:	2f6f      	cmp	r7, #111	@ 0x6f
 8001f7e:	4852      	ldr	r0, [pc, #328]	@ (80020c8 <_printf_i+0x234>)
 8001f80:	6033      	str	r3, [r6, #0]
 8001f82:	bf14      	ite	ne
 8001f84:	230a      	movne	r3, #10
 8001f86:	2308      	moveq	r3, #8
 8001f88:	2100      	movs	r1, #0
 8001f8a:	f884 1043 	strb.w	r1, [r4, #67]	@ 0x43
 8001f8e:	6866      	ldr	r6, [r4, #4]
 8001f90:	60a6      	str	r6, [r4, #8]
 8001f92:	2e00      	cmp	r6, #0
 8001f94:	db05      	blt.n	8001fa2 <_printf_i+0x10e>
 8001f96:	6821      	ldr	r1, [r4, #0]
 8001f98:	432e      	orrs	r6, r5
 8001f9a:	f021 0104 	bic.w	r1, r1, #4
 8001f9e:	6021      	str	r1, [r4, #0]
 8001fa0:	d04b      	beq.n	800203a <_printf_i+0x1a6>
 8001fa2:	4616      	mov	r6, r2
 8001fa4:	fbb5 f1f3 	udiv	r1, r5, r3
 8001fa8:	fb03 5711 	mls	r7, r3, r1, r5
 8001fac:	5dc7      	ldrb	r7, [r0, r7]
 8001fae:	f806 7d01 	strb.w	r7, [r6, #-1]!
 8001fb2:	462f      	mov	r7, r5
 8001fb4:	42bb      	cmp	r3, r7
 8001fb6:	460d      	mov	r5, r1
 8001fb8:	d9f4      	bls.n	8001fa4 <_printf_i+0x110>
 8001fba:	2b08      	cmp	r3, #8
 8001fbc:	d10b      	bne.n	8001fd6 <_printf_i+0x142>
 8001fbe:	6823      	ldr	r3, [r4, #0]
 8001fc0:	07df      	lsls	r7, r3, #31
 8001fc2:	d508      	bpl.n	8001fd6 <_printf_i+0x142>
 8001fc4:	6923      	ldr	r3, [r4, #16]
 8001fc6:	6861      	ldr	r1, [r4, #4]
 8001fc8:	4299      	cmp	r1, r3
 8001fca:	bfde      	ittt	le
 8001fcc:	2330      	movle	r3, #48	@ 0x30
 8001fce:	f806 3c01 	strble.w	r3, [r6, #-1]
 8001fd2:	f106 36ff 	addle.w	r6, r6, #4294967295	@ 0xffffffff
 8001fd6:	1b92      	subs	r2, r2, r6
 8001fd8:	6122      	str	r2, [r4, #16]
 8001fda:	f8cd a000 	str.w	sl, [sp]
 8001fde:	464b      	mov	r3, r9
 8001fe0:	aa03      	add	r2, sp, #12
 8001fe2:	4621      	mov	r1, r4
 8001fe4:	4640      	mov	r0, r8
 8001fe6:	f7ff fee7 	bl	8001db8 <_printf_common>
 8001fea:	3001      	adds	r0, #1
 8001fec:	d14a      	bne.n	8002084 <_printf_i+0x1f0>
 8001fee:	f04f 30ff 	mov.w	r0, #4294967295	@ 0xffffffff
 8001ff2:	b004      	add	sp, #16
 8001ff4:	e8bd 87f0 	ldmia.w	sp!, {r4, r5, r6, r7, r8, r9, sl, pc}
 8001ff8:	6823      	ldr	r3, [r4, #0]
 8001ffa:	f043 0320 	orr.w	r3, r3, #32
 8001ffe:	6023      	str	r3, [r4, #0]
 8002000:	4832      	ldr	r0, [pc, #200]	@ (80020cc <_printf_i+0x238>)
 8002002:	2778      	movs	r7, #120	@ 0x78
 8002004:	f884 7045 	strb.w	r7, [r4, #69]	@ 0x45
 8002008:	6823      	ldr	r3, [r4, #0]
 800200a:	6831      	ldr	r1, [r6, #0]
 800200c:	061f      	lsls	r7, r3, #24
 800200e:	f851 5b04 	ldr.w	r5, [r1], #4
 8002012:	d402      	bmi.n	800201a <_printf_i+0x186>
 8002014:	065f      	lsls	r7, r3, #25
 8002016:	bf48      	it	mi
 8002018:	b2ad      	uxthmi	r5, r5
 800201a:	6031      	str	r1, [r6, #0]
 800201c:	07d9      	lsls	r1, r3, #31
 800201e:	bf44      	itt	mi
 8002020:	f043 0320 	orrmi.w	r3, r3, #32
 8002024:	6023      	strmi	r3, [r4, #0]
 8002026:	b11d      	cbz	r5, 8002030 <_printf_i+0x19c>
 8002028:	2310      	movs	r3, #16
 800202a:	e7ad      	b.n	8001f88 <_printf_i+0xf4>
 800202c:	4826      	ldr	r0, [pc, #152]	@ (80020c8 <_printf_i+0x234>)
 800202e:	e7e9      	b.n	8002004 <_printf_i+0x170>
 8002030:	6823      	ldr	r3, [r4, #0]
 8002032:	f023 0320 	bic.w	r3, r3, #32
 8002036:	6023      	str	r3, [r4, #0]
 8002038:	e7f6      	b.n	8002028 <_printf_i+0x194>
 800203a:	4616      	mov	r6, r2
 800203c:	e7bd      	b.n	8001fba <_printf_i+0x126>
 800203e:	6833      	ldr	r3, [r6, #0]
 8002040:	6825      	ldr	r5, [r4, #0]
 8002042:	6961      	ldr	r1, [r4, #20]
 8002044:	1d18      	adds	r0, r3, #4
 8002046:	6030      	str	r0, [r6, #0]
 8002048:	062e      	lsls	r6, r5, #24
 800204a:	681b      	ldr	r3, [r3, #0]
 800204c:	d501      	bpl.n	8002052 <_printf_i+0x1be>
 800204e:	6019      	str	r1, [r3, #0]
 8002050:	e002      	b.n	8002058 <_printf_i+0x1c4>
 8002052:	0668      	lsls	r0, r5, #25
 8002054:	d5fb      	bpl.n	800204e <_printf_i+0x1ba>
 8002056:	8019      	strh	r1, [r3, #0]
 8002058:	2300      	movs	r3, #0
 800205a:	6123      	str	r3, [r4, #16]
 800205c:	4616      	mov	r6, r2
 800205e:	e7bc      	b.n	8001fda <_printf_i+0x146>
 8002060:	6833      	ldr	r3, [r6, #0]
 8002062:	1d1a      	adds	r2, r3, #4
 8002064:	6032      	str	r2, [r6, #0]
 8002066:	681e      	ldr	r6, [r3, #0]
 8002068:	6862      	ldr	r2, [r4, #4]
 800206a:	2100      	movs	r1, #0
 800206c:	4630      	mov	r0, r6
 800206e:	f7fe f8af 	bl	80001d0 <memchr>
 8002072:	b108      	cbz	r0, 8002078 <_printf_i+0x1e4>
 8002074:	1b80      	subs	r0, r0, r6
 8002076:	6060      	str	r0, [r4, #4]
 8002078:	6863      	ldr	r3, [r4, #4]
 800207a:	6123      	str	r3, [r4, #16]
 800207c:	2300      	movs	r3, #0
 800207e:	f884 3043 	strb.w	r3, [r4, #67]	@ 0x43
 8002082:	e7aa      	b.n	8001fda <_printf_i+0x146>
 8002084:	6923      	ldr	r3, [r4, #16]
 8002086:	4632      	mov	r2, r6
 8002088:	4649      	mov	r1, r9
 800208a:	4640      	mov	r0, r8
 800208c:	47d0      	blx	sl
 800208e:	3001      	adds	r0, #1
 8002090:	d0ad      	beq.n	8001fee <_printf_i+0x15a>
 8002092:	6823      	ldr	r3, [r4, #0]
 8002094:	079b      	lsls	r3, r3, #30
 8002096:	d413      	bmi.n	80020c0 <_printf_i+0x22c>
 8002098:	68e0      	ldr	r0, [r4, #12]
 800209a:	9b03      	ldr	r3, [sp, #12]
 800209c:	4298      	cmp	r0, r3
 800209e:	bfb8      	it	lt
 80020a0:	4618      	movlt	r0, r3
 80020a2:	e7a6      	b.n	8001ff2 <_printf_i+0x15e>
 80020a4:	2301      	movs	r3, #1
 80020a6:	4632      	mov	r2, r6
 80020a8:	4649      	mov	r1, r9
 80020aa:	4640      	mov	r0, r8
 80020ac:	47d0      	blx	sl
 80020ae:	3001      	adds	r0, #1
 80020b0:	d09d      	beq.n	8001fee <_printf_i+0x15a>
 80020b2:	3501      	adds	r5, #1
 80020b4:	68e3      	ldr	r3, [r4, #12]
 80020b6:	9903      	ldr	r1, [sp, #12]
 80020b8:	1a5b      	subs	r3, r3, r1
 80020ba:	42ab      	cmp	r3, r5
 80020bc:	dcf2      	bgt.n	80020a4 <_printf_i+0x210>
 80020be:	e7eb      	b.n	8002098 <_printf_i+0x204>
 80020c0:	2500      	movs	r5, #0
 80020c2:	f104 0619 	add.w	r6, r4, #25
 80020c6:	e7f5      	b.n	80020b4 <_printf_i+0x220>
 80020c8:	08002701 	.word	0x08002701
 80020cc:	08002712 	.word	0x08002712

080020d0 <__sflush_r>:
 80020d0:	f9b1 200c 	ldrsh.w	r2, [r1, #12]
 80020d4:	b5f8      	push	{r3, r4, r5, r6, r7, lr}
 80020d6:	0716      	lsls	r6, r2, #28
 80020d8:	4605      	mov	r5, r0
 80020da:	460c      	mov	r4, r1
 80020dc:	d454      	bmi.n	8002188 <__sflush_r+0xb8>
 80020de:	684b      	ldr	r3, [r1, #4]
 80020e0:	2b00      	cmp	r3, #0
 80020e2:	dc02      	bgt.n	80020ea <__sflush_r+0x1a>
 80020e4:	6c0b      	ldr	r3, [r1, #64]	@ 0x40
 80020e6:	2b00      	cmp	r3, #0
 80020e8:	dd48      	ble.n	800217c <__sflush_r+0xac>
 80020ea:	6ae6      	ldr	r6, [r4, #44]	@ 0x2c
 80020ec:	2e00      	cmp	r6, #0
 80020ee:	d045      	beq.n	800217c <__sflush_r+0xac>
 80020f0:	2300      	movs	r3, #0
 80020f2:	f412 5280 	ands.w	r2, r2, #4096	@ 0x1000
 80020f6:	682f      	ldr	r7, [r5, #0]
 80020f8:	6a21      	ldr	r1, [r4, #32]
 80020fa:	602b      	str	r3, [r5, #0]
 80020fc:	d030      	beq.n	8002160 <__sflush_r+0x90>
 80020fe:	6d62      	ldr	r2, [r4, #84]	@ 0x54
 8002100:	89a3      	ldrh	r3, [r4, #12]
 8002102:	0759      	lsls	r1, r3, #29
 8002104:	d505      	bpl.n	8002112 <__sflush_r+0x42>
 8002106:	6863      	ldr	r3, [r4, #4]
 8002108:	1ad2      	subs	r2, r2, r3
 800210a:	6b63      	ldr	r3, [r4, #52]	@ 0x34
 800210c:	b10b      	cbz	r3, 8002112 <__sflush_r+0x42>
 800210e:	6c23      	ldr	r3, [r4, #64]	@ 0x40
 8002110:	1ad2      	subs	r2, r2, r3
 8002112:	2300      	movs	r3, #0
 8002114:	6ae6      	ldr	r6, [r4, #44]	@ 0x2c
 8002116:	6a21      	ldr	r1, [r4, #32]
 8002118:	4628      	mov	r0, r5
 800211a:	47b0      	blx	r6
 800211c:	1c43      	adds	r3, r0, #1
 800211e:	89a3      	ldrh	r3, [r4, #12]
 8002120:	d106      	bne.n	8002130 <__sflush_r+0x60>
 8002122:	6829      	ldr	r1, [r5, #0]
 8002124:	291d      	cmp	r1, #29
 8002126:	d82b      	bhi.n	8002180 <__sflush_r+0xb0>
 8002128:	4a28      	ldr	r2, [pc, #160]	@ (80021cc <__sflush_r+0xfc>)
 800212a:	40ca      	lsrs	r2, r1
 800212c:	07d6      	lsls	r6, r2, #31
 800212e:	d527      	bpl.n	8002180 <__sflush_r+0xb0>
 8002130:	2200      	movs	r2, #0
 8002132:	6062      	str	r2, [r4, #4]
 8002134:	04d9      	lsls	r1, r3, #19
 8002136:	6922      	ldr	r2, [r4, #16]
 8002138:	6022      	str	r2, [r4, #0]
 800213a:	d504      	bpl.n	8002146 <__sflush_r+0x76>
 800213c:	1c42      	adds	r2, r0, #1
 800213e:	d101      	bne.n	8002144 <__sflush_r+0x74>
 8002140:	682b      	ldr	r3, [r5, #0]
 8002142:	b903      	cbnz	r3, 8002146 <__sflush_r+0x76>
 8002144:	6560      	str	r0, [r4, #84]	@ 0x54
 8002146:	6b61      	ldr	r1, [r4, #52]	@ 0x34
 8002148:	602f      	str	r7, [r5, #0]
 800214a:	b1b9      	cbz	r1, 800217c <__sflush_r+0xac>
 800214c:	f104 0344 	add.w	r3, r4, #68	@ 0x44
 8002150:	4299      	cmp	r1, r3
 8002152:	d002      	beq.n	800215a <__sflush_r+0x8a>
 8002154:	4628      	mov	r0, r5
 8002156:	f000 fa21 	bl	800259c <_free_r>
 800215a:	2300      	movs	r3, #0
 800215c:	6363      	str	r3, [r4, #52]	@ 0x34
 800215e:	e00d      	b.n	800217c <__sflush_r+0xac>
 8002160:	2301      	movs	r3, #1
 8002162:	4628      	mov	r0, r5
 8002164:	47b0      	blx	r6
 8002166:	4602      	mov	r2, r0
 8002168:	1c50      	adds	r0, r2, #1
 800216a:	d1c9      	bne.n	8002100 <__sflush_r+0x30>
 800216c:	682b      	ldr	r3, [r5, #0]
 800216e:	2b00      	cmp	r3, #0
 8002170:	d0c6      	beq.n	8002100 <__sflush_r+0x30>
 8002172:	2b1d      	cmp	r3, #29
 8002174:	d001      	beq.n	800217a <__sflush_r+0xaa>
 8002176:	2b16      	cmp	r3, #22
 8002178:	d11d      	bne.n	80021b6 <__sflush_r+0xe6>
 800217a:	602f      	str	r7, [r5, #0]
 800217c:	2000      	movs	r0, #0
 800217e:	e021      	b.n	80021c4 <__sflush_r+0xf4>
 8002180:	f043 0340 	orr.w	r3, r3, #64	@ 0x40
 8002184:	b21b      	sxth	r3, r3
 8002186:	e01a      	b.n	80021be <__sflush_r+0xee>
 8002188:	690f      	ldr	r7, [r1, #16]
 800218a:	2f00      	cmp	r7, #0
 800218c:	d0f6      	beq.n	800217c <__sflush_r+0xac>
 800218e:	0793      	lsls	r3, r2, #30
 8002190:	680e      	ldr	r6, [r1, #0]
 8002192:	bf08      	it	eq
 8002194:	694b      	ldreq	r3, [r1, #20]
 8002196:	600f      	str	r7, [r1, #0]
 8002198:	bf18      	it	ne
 800219a:	2300      	movne	r3, #0
 800219c:	1bf6      	subs	r6, r6, r7
 800219e:	608b      	str	r3, [r1, #8]
 80021a0:	2e00      	cmp	r6, #0
 80021a2:	ddeb      	ble.n	800217c <__sflush_r+0xac>
 80021a4:	6a21      	ldr	r1, [r4, #32]
 80021a6:	f8d4 c028 	ldr.w	ip, [r4, #40]	@ 0x28
 80021aa:	4633      	mov	r3, r6
 80021ac:	463a      	mov	r2, r7
 80021ae:	4628      	mov	r0, r5
 80021b0:	47e0      	blx	ip
 80021b2:	2800      	cmp	r0, #0
 80021b4:	dc07      	bgt.n	80021c6 <__sflush_r+0xf6>
 80021b6:	f9b4 300c 	ldrsh.w	r3, [r4, #12]
 80021ba:	f043 0340 	orr.w	r3, r3, #64	@ 0x40
 80021be:	81a3      	strh	r3, [r4, #12]
 80021c0:	f04f 30ff 	mov.w	r0, #4294967295	@ 0xffffffff
 80021c4:	bdf8      	pop	{r3, r4, r5, r6, r7, pc}
 80021c6:	4407      	add	r7, r0
 80021c8:	1a36      	subs	r6, r6, r0
 80021ca:	e7e9      	b.n	80021a0 <__sflush_r+0xd0>
 80021cc:	20400001 	.word	0x20400001

080021d0 <_fflush_r>:
 80021d0:	b538      	push	{r3, r4, r5, lr}
 80021d2:	690b      	ldr	r3, [r1, #16]
 80021d4:	4605      	mov	r5, r0
 80021d6:	460c      	mov	r4, r1
 80021d8:	b913      	cbnz	r3, 80021e0 <_fflush_r+0x10>
 80021da:	2500      	movs	r5, #0
 80021dc:	4628      	mov	r0, r5
 80021de:	bd38      	pop	{r3, r4, r5, pc}
 80021e0:	b118      	cbz	r0, 80021ea <_fflush_r+0x1a>
 80021e2:	6a03      	ldr	r3, [r0, #32]
 80021e4:	b90b      	cbnz	r3, 80021ea <_fflush_r+0x1a>
 80021e6:	f7ff fb2b 	bl	8001840 <__sinit>
 80021ea:	f9b4 300c 	ldrsh.w	r3, [r4, #12]
 80021ee:	2b00      	cmp	r3, #0
 80021f0:	d0f3      	beq.n	80021da <_fflush_r+0xa>
 80021f2:	6e62      	ldr	r2, [r4, #100]	@ 0x64
 80021f4:	07d0      	lsls	r0, r2, #31
 80021f6:	d404      	bmi.n	8002202 <_fflush_r+0x32>
 80021f8:	0599      	lsls	r1, r3, #22
 80021fa:	d402      	bmi.n	8002202 <_fflush_r+0x32>
 80021fc:	6da0      	ldr	r0, [r4, #88]	@ 0x58
 80021fe:	f7ff fbf8 	bl	80019f2 <__retarget_lock_acquire_recursive>
 8002202:	4628      	mov	r0, r5
 8002204:	4621      	mov	r1, r4
 8002206:	f7ff ff63 	bl	80020d0 <__sflush_r>
 800220a:	6e63      	ldr	r3, [r4, #100]	@ 0x64
 800220c:	07da      	lsls	r2, r3, #31
 800220e:	4605      	mov	r5, r0
 8002210:	d4e4      	bmi.n	80021dc <_fflush_r+0xc>
 8002212:	89a3      	ldrh	r3, [r4, #12]
 8002214:	059b      	lsls	r3, r3, #22
 8002216:	d4e1      	bmi.n	80021dc <_fflush_r+0xc>
 8002218:	6da0      	ldr	r0, [r4, #88]	@ 0x58
 800221a:	f7ff fbeb 	bl	80019f4 <__retarget_lock_release_recursive>
 800221e:	e7dd      	b.n	80021dc <_fflush_r+0xc>

08002220 <__malloc_lock>:
 8002220:	4801      	ldr	r0, [pc, #4]	@ (8002228 <__malloc_lock+0x8>)
 8002222:	f7ff bbe6 	b.w	80019f2 <__retarget_lock_acquire_recursive>
 8002226:	bf00      	nop
 8002228:	20000234 	.word	0x20000234

0800222c <__malloc_unlock>:
 800222c:	4801      	ldr	r0, [pc, #4]	@ (8002234 <__malloc_unlock+0x8>)
 800222e:	f7ff bbe1 	b.w	80019f4 <__retarget_lock_release_recursive>
 8002232:	bf00      	nop
 8002234:	20000234 	.word	0x20000234

08002238 <__sread>:
 8002238:	b510      	push	{r4, lr}
 800223a:	460c      	mov	r4, r1
 800223c:	f9b1 100e 	ldrsh.w	r1, [r1, #14]
 8002240:	f000 f956 	bl	80024f0 <_read_r>
 8002244:	2800      	cmp	r0, #0
 8002246:	bfab      	itete	ge
 8002248:	6d63      	ldrge	r3, [r4, #84]	@ 0x54
 800224a:	89a3      	ldrhlt	r3, [r4, #12]
 800224c:	181b      	addge	r3, r3, r0
 800224e:	f423 5380 	biclt.w	r3, r3, #4096	@ 0x1000
 8002252:	bfac      	ite	ge
 8002254:	6563      	strge	r3, [r4, #84]	@ 0x54
 8002256:	81a3      	strhlt	r3, [r4, #12]
 8002258:	bd10      	pop	{r4, pc}

0800225a <__swrite>:
 800225a:	e92d 41f0 	stmdb	sp!, {r4, r5, r6, r7, r8, lr}
 800225e:	461f      	mov	r7, r3
 8002260:	898b      	ldrh	r3, [r1, #12]
 8002262:	05db      	lsls	r3, r3, #23
 8002264:	4605      	mov	r5, r0
 8002266:	460c      	mov	r4, r1
 8002268:	4616      	mov	r6, r2
 800226a:	d505      	bpl.n	8002278 <__swrite+0x1e>
 800226c:	f9b1 100e 	ldrsh.w	r1, [r1, #14]
 8002270:	2302      	movs	r3, #2
 8002272:	2200      	movs	r2, #0
 8002274:	f000 f92a 	bl	80024cc <_lseek_r>
 8002278:	89a3      	ldrh	r3, [r4, #12]
 800227a:	f9b4 100e 	ldrsh.w	r1, [r4, #14]
 800227e:	f423 5380 	bic.w	r3, r3, #4096	@ 0x1000
 8002282:	81a3      	strh	r3, [r4, #12]
 8002284:	4632      	mov	r2, r6
 8002286:	463b      	mov	r3, r7
 8002288:	4628      	mov	r0, r5
 800228a:	e8bd 41f0 	ldmia.w	sp!, {r4, r5, r6, r7, r8, lr}
 800228e:	f000 b951 	b.w	8002534 <_write_r>

08002292 <__sseek>:
 8002292:	b510      	push	{r4, lr}
 8002294:	460c      	mov	r4, r1
 8002296:	f9b1 100e 	ldrsh.w	r1, [r1, #14]
 800229a:	f000 f917 	bl	80024cc <_lseek_r>
 800229e:	1c43      	adds	r3, r0, #1
 80022a0:	89a3      	ldrh	r3, [r4, #12]
 80022a2:	bf15      	itete	ne
 80022a4:	6560      	strne	r0, [r4, #84]	@ 0x54
 80022a6:	f423 5380 	biceq.w	r3, r3, #4096	@ 0x1000
 80022aa:	f443 5380 	orrne.w	r3, r3, #4096	@ 0x1000
 80022ae:	81a3      	strheq	r3, [r4, #12]
 80022b0:	bf18      	it	ne
 80022b2:	81a3      	strhne	r3, [r4, #12]
 80022b4:	bd10      	pop	{r4, pc}

080022b6 <__sclose>:
 80022b6:	f9b1 100e 	ldrsh.w	r1, [r1, #14]
 80022ba:	f000 b94d 	b.w	8002558 <_close_r>

080022be <__swbuf_r>:
 80022be:	b5f8      	push	{r3, r4, r5, r6, r7, lr}
 80022c0:	460e      	mov	r6, r1
 80022c2:	4614      	mov	r4, r2
 80022c4:	4605      	mov	r5, r0
 80022c6:	b118      	cbz	r0, 80022d0 <__swbuf_r+0x12>
 80022c8:	6a03      	ldr	r3, [r0, #32]
 80022ca:	b90b      	cbnz	r3, 80022d0 <__swbuf_r+0x12>
 80022cc:	f7ff fab8 	bl	8001840 <__sinit>
 80022d0:	69a3      	ldr	r3, [r4, #24]
 80022d2:	60a3      	str	r3, [r4, #8]
 80022d4:	89a3      	ldrh	r3, [r4, #12]
 80022d6:	071a      	lsls	r2, r3, #28
 80022d8:	d501      	bpl.n	80022de <__swbuf_r+0x20>
 80022da:	6923      	ldr	r3, [r4, #16]
 80022dc:	b943      	cbnz	r3, 80022f0 <__swbuf_r+0x32>
 80022de:	4621      	mov	r1, r4
 80022e0:	4628      	mov	r0, r5
 80022e2:	f000 f82b 	bl	800233c <__swsetup_r>
 80022e6:	b118      	cbz	r0, 80022f0 <__swbuf_r+0x32>
 80022e8:	f04f 37ff 	mov.w	r7, #4294967295	@ 0xffffffff
 80022ec:	4638      	mov	r0, r7
 80022ee:	bdf8      	pop	{r3, r4, r5, r6, r7, pc}
 80022f0:	6823      	ldr	r3, [r4, #0]
 80022f2:	6922      	ldr	r2, [r4, #16]
 80022f4:	1a98      	subs	r0, r3, r2
 80022f6:	6963      	ldr	r3, [r4, #20]
 80022f8:	b2f6      	uxtb	r6, r6
 80022fa:	4283      	cmp	r3, r0
 80022fc:	4637      	mov	r7, r6
 80022fe:	dc05      	bgt.n	800230c <__swbuf_r+0x4e>
 8002300:	4621      	mov	r1, r4
 8002302:	4628      	mov	r0, r5
 8002304:	f7ff ff64 	bl	80021d0 <_fflush_r>
 8002308:	2800      	cmp	r0, #0
 800230a:	d1ed      	bne.n	80022e8 <__swbuf_r+0x2a>
 800230c:	68a3      	ldr	r3, [r4, #8]
 800230e:	3b01      	subs	r3, #1
 8002310:	60a3      	str	r3, [r4, #8]
 8002312:	6823      	ldr	r3, [r4, #0]
 8002314:	1c5a      	adds	r2, r3, #1
 8002316:	6022      	str	r2, [r4, #0]
 8002318:	701e      	strb	r6, [r3, #0]
 800231a:	6962      	ldr	r2, [r4, #20]
 800231c:	1c43      	adds	r3, r0, #1
 800231e:	429a      	cmp	r2, r3
 8002320:	d004      	beq.n	800232c <__swbuf_r+0x6e>
 8002322:	89a3      	ldrh	r3, [r4, #12]
 8002324:	07db      	lsls	r3, r3, #31
 8002326:	d5e1      	bpl.n	80022ec <__swbuf_r+0x2e>
 8002328:	2e0a      	cmp	r6, #10
 800232a:	d1df      	bne.n	80022ec <__swbuf_r+0x2e>
 800232c:	4621      	mov	r1, r4
 800232e:	4628      	mov	r0, r5
 8002330:	f7ff ff4e 	bl	80021d0 <_fflush_r>
 8002334:	2800      	cmp	r0, #0
 8002336:	d0d9      	beq.n	80022ec <__swbuf_r+0x2e>
 8002338:	e7d6      	b.n	80022e8 <__swbuf_r+0x2a>
	...

0800233c <__swsetup_r>:
 800233c:	b538      	push	{r3, r4, r5, lr}
 800233e:	4b29      	ldr	r3, [pc, #164]	@ (80023e4 <__swsetup_r+0xa8>)
 8002340:	4605      	mov	r5, r0
 8002342:	6818      	ldr	r0, [r3, #0]
 8002344:	460c      	mov	r4, r1
 8002346:	b118      	cbz	r0, 8002350 <__swsetup_r+0x14>
 8002348:	6a03      	ldr	r3, [r0, #32]
 800234a:	b90b      	cbnz	r3, 8002350 <__swsetup_r+0x14>
 800234c:	f7ff fa78 	bl	8001840 <__sinit>
 8002350:	f9b4 300c 	ldrsh.w	r3, [r4, #12]
 8002354:	0719      	lsls	r1, r3, #28
 8002356:	d422      	bmi.n	800239e <__swsetup_r+0x62>
 8002358:	06da      	lsls	r2, r3, #27
 800235a:	d407      	bmi.n	800236c <__swsetup_r+0x30>
 800235c:	2209      	movs	r2, #9
 800235e:	602a      	str	r2, [r5, #0]
 8002360:	f043 0340 	orr.w	r3, r3, #64	@ 0x40
 8002364:	81a3      	strh	r3, [r4, #12]
 8002366:	f04f 30ff 	mov.w	r0, #4294967295	@ 0xffffffff
 800236a:	e033      	b.n	80023d4 <__swsetup_r+0x98>
 800236c:	0758      	lsls	r0, r3, #29
 800236e:	d512      	bpl.n	8002396 <__swsetup_r+0x5a>
 8002370:	6b61      	ldr	r1, [r4, #52]	@ 0x34
 8002372:	b141      	cbz	r1, 8002386 <__swsetup_r+0x4a>
 8002374:	f104 0344 	add.w	r3, r4, #68	@ 0x44
 8002378:	4299      	cmp	r1, r3
 800237a:	d002      	beq.n	8002382 <__swsetup_r+0x46>
 800237c:	4628      	mov	r0, r5
 800237e:	f000 f90d 	bl	800259c <_free_r>
 8002382:	2300      	movs	r3, #0
 8002384:	6363      	str	r3, [r4, #52]	@ 0x34
 8002386:	89a3      	ldrh	r3, [r4, #12]
 8002388:	f023 0324 	bic.w	r3, r3, #36	@ 0x24
 800238c:	81a3      	strh	r3, [r4, #12]
 800238e:	2300      	movs	r3, #0
 8002390:	6063      	str	r3, [r4, #4]
 8002392:	6923      	ldr	r3, [r4, #16]
 8002394:	6023      	str	r3, [r4, #0]
 8002396:	89a3      	ldrh	r3, [r4, #12]
 8002398:	f043 0308 	orr.w	r3, r3, #8
 800239c:	81a3      	strh	r3, [r4, #12]
 800239e:	6923      	ldr	r3, [r4, #16]
 80023a0:	b94b      	cbnz	r3, 80023b6 <__swsetup_r+0x7a>
 80023a2:	89a3      	ldrh	r3, [r4, #12]
 80023a4:	f403 7320 	and.w	r3, r3, #640	@ 0x280
 80023a8:	f5b3 7f00 	cmp.w	r3, #512	@ 0x200
 80023ac:	d003      	beq.n	80023b6 <__swsetup_r+0x7a>
 80023ae:	4621      	mov	r1, r4
 80023b0:	4628      	mov	r0, r5
 80023b2:	f000 f83f 	bl	8002434 <__smakebuf_r>
 80023b6:	f9b4 300c 	ldrsh.w	r3, [r4, #12]
 80023ba:	f013 0201 	ands.w	r2, r3, #1
 80023be:	d00a      	beq.n	80023d6 <__swsetup_r+0x9a>
 80023c0:	2200      	movs	r2, #0
 80023c2:	60a2      	str	r2, [r4, #8]
 80023c4:	6962      	ldr	r2, [r4, #20]
 80023c6:	4252      	negs	r2, r2
 80023c8:	61a2      	str	r2, [r4, #24]
 80023ca:	6922      	ldr	r2, [r4, #16]
 80023cc:	b942      	cbnz	r2, 80023e0 <__swsetup_r+0xa4>
 80023ce:	f013 0080 	ands.w	r0, r3, #128	@ 0x80
 80023d2:	d1c5      	bne.n	8002360 <__swsetup_r+0x24>
 80023d4:	bd38      	pop	{r3, r4, r5, pc}
 80023d6:	0799      	lsls	r1, r3, #30
 80023d8:	bf58      	it	pl
 80023da:	6962      	ldrpl	r2, [r4, #20]
 80023dc:	60a2      	str	r2, [r4, #8]
 80023de:	e7f4      	b.n	80023ca <__swsetup_r+0x8e>
 80023e0:	2000      	movs	r0, #0
 80023e2:	e7f7      	b.n	80023d4 <__swsetup_r+0x98>
 80023e4:	20000040 	.word	0x20000040

080023e8 <__swhatbuf_r>:
 80023e8:	b570      	push	{r4, r5, r6, lr}
 80023ea:	460c      	mov	r4, r1
 80023ec:	f9b1 100e 	ldrsh.w	r1, [r1, #14]
 80023f0:	2900      	cmp	r1, #0
 80023f2:	b096      	sub	sp, #88	@ 0x58
 80023f4:	4615      	mov	r5, r2
 80023f6:	461e      	mov	r6, r3
 80023f8:	da0d      	bge.n	8002416 <__swhatbuf_r+0x2e>
 80023fa:	89a3      	ldrh	r3, [r4, #12]
 80023fc:	f013 0f80 	tst.w	r3, #128	@ 0x80
 8002400:	f04f 0100 	mov.w	r1, #0
 8002404:	bf14      	ite	ne
 8002406:	2340      	movne	r3, #64	@ 0x40
 8002408:	f44f 6380 	moveq.w	r3, #1024	@ 0x400
 800240c:	2000      	movs	r0, #0
 800240e:	6031      	str	r1, [r6, #0]
 8002410:	602b      	str	r3, [r5, #0]
 8002412:	b016      	add	sp, #88	@ 0x58
 8002414:	bd70      	pop	{r4, r5, r6, pc}
 8002416:	466a      	mov	r2, sp
 8002418:	f000 f8ae 	bl	8002578 <_fstat_r>
 800241c:	2800      	cmp	r0, #0
 800241e:	dbec      	blt.n	80023fa <__swhatbuf_r+0x12>
 8002420:	9901      	ldr	r1, [sp, #4]
 8002422:	f401 4170 	and.w	r1, r1, #61440	@ 0xf000
 8002426:	f5a1 5300 	sub.w	r3, r1, #8192	@ 0x2000
 800242a:	4259      	negs	r1, r3
 800242c:	4159      	adcs	r1, r3
 800242e:	f44f 6380 	mov.w	r3, #1024	@ 0x400
 8002432:	e7eb      	b.n	800240c <__swhatbuf_r+0x24>

08002434 <__smakebuf_r>:
 8002434:	898b      	ldrh	r3, [r1, #12]
 8002436:	b5f7      	push	{r0, r1, r2, r4, r5, r6, r7, lr}
 8002438:	079d      	lsls	r5, r3, #30
 800243a:	4606      	mov	r6, r0
 800243c:	460c      	mov	r4, r1
 800243e:	d507      	bpl.n	8002450 <__smakebuf_r+0x1c>
 8002440:	f104 0347 	add.w	r3, r4, #71	@ 0x47
 8002444:	6023      	str	r3, [r4, #0]
 8002446:	6123      	str	r3, [r4, #16]
 8002448:	2301      	movs	r3, #1
 800244a:	6163      	str	r3, [r4, #20]
 800244c:	b003      	add	sp, #12
 800244e:	bdf0      	pop	{r4, r5, r6, r7, pc}
 8002450:	ab01      	add	r3, sp, #4
 8002452:	466a      	mov	r2, sp
 8002454:	f7ff ffc8 	bl	80023e8 <__swhatbuf_r>
 8002458:	9f00      	ldr	r7, [sp, #0]
 800245a:	4605      	mov	r5, r0
 800245c:	4639      	mov	r1, r7
 800245e:	4630      	mov	r0, r6
 8002460:	f7ff fc2a 	bl	8001cb8 <_malloc_r>
 8002464:	b948      	cbnz	r0, 800247a <__smakebuf_r+0x46>
 8002466:	f9b4 300c 	ldrsh.w	r3, [r4, #12]
 800246a:	059a      	lsls	r2, r3, #22
 800246c:	d4ee      	bmi.n	800244c <__smakebuf_r+0x18>
 800246e:	f023 0303 	bic.w	r3, r3, #3
 8002472:	f043 0302 	orr.w	r3, r3, #2
 8002476:	81a3      	strh	r3, [r4, #12]
 8002478:	e7e2      	b.n	8002440 <__smakebuf_r+0xc>
 800247a:	89a3      	ldrh	r3, [r4, #12]
 800247c:	6020      	str	r0, [r4, #0]
 800247e:	f043 0380 	orr.w	r3, r3, #128	@ 0x80
 8002482:	81a3      	strh	r3, [r4, #12]
 8002484:	9b01      	ldr	r3, [sp, #4]
 8002486:	e9c4 0704 	strd	r0, r7, [r4, #16]
 800248a:	b15b      	cbz	r3, 80024a4 <__smakebuf_r+0x70>
 800248c:	f9b4 100e 	ldrsh.w	r1, [r4, #14]
 8002490:	4630      	mov	r0, r6
 8002492:	f000 f80b 	bl	80024ac <_isatty_r>
 8002496:	b128      	cbz	r0, 80024a4 <__smakebuf_r+0x70>
 8002498:	89a3      	ldrh	r3, [r4, #12]
 800249a:	f023 0303 	bic.w	r3, r3, #3
 800249e:	f043 0301 	orr.w	r3, r3, #1
 80024a2:	81a3      	strh	r3, [r4, #12]
 80024a4:	89a3      	ldrh	r3, [r4, #12]
 80024a6:	431d      	orrs	r5, r3
 80024a8:	81a5      	strh	r5, [r4, #12]
 80024aa:	e7cf      	b.n	800244c <__smakebuf_r+0x18>

080024ac <_isatty_r>:
 80024ac:	b538      	push	{r3, r4, r5, lr}
 80024ae:	4d06      	ldr	r5, [pc, #24]	@ (80024c8 <_isatty_r+0x1c>)
 80024b0:	2300      	movs	r3, #0
 80024b2:	4604      	mov	r4, r0
 80024b4:	4608      	mov	r0, r1
 80024b6:	602b      	str	r3, [r5, #0]
 80024b8:	f7fe f8f1 	bl	800069e <_isatty>
 80024bc:	1c43      	adds	r3, r0, #1
 80024be:	d102      	bne.n	80024c6 <_isatty_r+0x1a>
 80024c0:	682b      	ldr	r3, [r5, #0]
 80024c2:	b103      	cbz	r3, 80024c6 <_isatty_r+0x1a>
 80024c4:	6023      	str	r3, [r4, #0]
 80024c6:	bd38      	pop	{r3, r4, r5, pc}
 80024c8:	20000240 	.word	0x20000240

080024cc <_lseek_r>:
 80024cc:	b538      	push	{r3, r4, r5, lr}
 80024ce:	4d07      	ldr	r5, [pc, #28]	@ (80024ec <_lseek_r+0x20>)
 80024d0:	4604      	mov	r4, r0
 80024d2:	4608      	mov	r0, r1
 80024d4:	4611      	mov	r1, r2
 80024d6:	2200      	movs	r2, #0
 80024d8:	602a      	str	r2, [r5, #0]
 80024da:	461a      	mov	r2, r3
 80024dc:	f7fe f8e9 	bl	80006b2 <_lseek>
 80024e0:	1c43      	adds	r3, r0, #1
 80024e2:	d102      	bne.n	80024ea <_lseek_r+0x1e>
 80024e4:	682b      	ldr	r3, [r5, #0]
 80024e6:	b103      	cbz	r3, 80024ea <_lseek_r+0x1e>
 80024e8:	6023      	str	r3, [r4, #0]
 80024ea:	bd38      	pop	{r3, r4, r5, pc}
 80024ec:	20000240 	.word	0x20000240

080024f0 <_read_r>:
 80024f0:	b538      	push	{r3, r4, r5, lr}
 80024f2:	4d07      	ldr	r5, [pc, #28]	@ (8002510 <_read_r+0x20>)
 80024f4:	4604      	mov	r4, r0
 80024f6:	4608      	mov	r0, r1
 80024f8:	4611      	mov	r1, r2
 80024fa:	2200      	movs	r2, #0
 80024fc:	602a      	str	r2, [r5, #0]
 80024fe:	461a      	mov	r2, r3
 8002500:	f7fe f87a 	bl	80005f8 <_read>
 8002504:	1c43      	adds	r3, r0, #1
 8002506:	d102      	bne.n	800250e <_read_r+0x1e>
 8002508:	682b      	ldr	r3, [r5, #0]
 800250a:	b103      	cbz	r3, 800250e <_read_r+0x1e>
 800250c:	6023      	str	r3, [r4, #0]
 800250e:	bd38      	pop	{r3, r4, r5, pc}
 8002510:	20000240 	.word	0x20000240

08002514 <_sbrk_r>:
 8002514:	b538      	push	{r3, r4, r5, lr}
 8002516:	4d06      	ldr	r5, [pc, #24]	@ (8002530 <_sbrk_r+0x1c>)
 8002518:	2300      	movs	r3, #0
 800251a:	4604      	mov	r4, r0
 800251c:	4608      	mov	r0, r1
 800251e:	602b      	str	r3, [r5, #0]
 8002520:	f7fe f8d4 	bl	80006cc <_sbrk>
 8002524:	1c43      	adds	r3, r0, #1
 8002526:	d102      	bne.n	800252e <_sbrk_r+0x1a>
 8002528:	682b      	ldr	r3, [r5, #0]
 800252a:	b103      	cbz	r3, 800252e <_sbrk_r+0x1a>
 800252c:	6023      	str	r3, [r4, #0]
 800252e:	bd38      	pop	{r3, r4, r5, pc}
 8002530:	20000240 	.word	0x20000240

08002534 <_write_r>:
 8002534:	b538      	push	{r3, r4, r5, lr}
 8002536:	4d07      	ldr	r5, [pc, #28]	@ (8002554 <_write_r+0x20>)
 8002538:	4604      	mov	r4, r0
 800253a:	4608      	mov	r0, r1
 800253c:	4611      	mov	r1, r2
 800253e:	2200      	movs	r2, #0
 8002540:	602a      	str	r2, [r5, #0]
 8002542:	461a      	mov	r2, r3
 8002544:	f7fe f875 	bl	8000632 <_write>
 8002548:	1c43      	adds	r3, r0, #1
 800254a:	d102      	bne.n	8002552 <_write_r+0x1e>
 800254c:	682b      	ldr	r3, [r5, #0]
 800254e:	b103      	cbz	r3, 8002552 <_write_r+0x1e>
 8002550:	6023      	str	r3, [r4, #0]
 8002552:	bd38      	pop	{r3, r4, r5, pc}
 8002554:	20000240 	.word	0x20000240

08002558 <_close_r>:
 8002558:	b538      	push	{r3, r4, r5, lr}
 800255a:	4d06      	ldr	r5, [pc, #24]	@ (8002574 <_close_r+0x1c>)
 800255c:	2300      	movs	r3, #0
 800255e:	4604      	mov	r4, r0
 8002560:	4608      	mov	r0, r1
 8002562:	602b      	str	r3, [r5, #0]
 8002564:	f7fe f881 	bl	800066a <_close>
 8002568:	1c43      	adds	r3, r0, #1
 800256a:	d102      	bne.n	8002572 <_close_r+0x1a>
 800256c:	682b      	ldr	r3, [r5, #0]
 800256e:	b103      	cbz	r3, 8002572 <_close_r+0x1a>
 8002570:	6023      	str	r3, [r4, #0]
 8002572:	bd38      	pop	{r3, r4, r5, pc}
 8002574:	20000240 	.word	0x20000240

08002578 <_fstat_r>:
 8002578:	b538      	push	{r3, r4, r5, lr}
 800257a:	4d07      	ldr	r5, [pc, #28]	@ (8002598 <_fstat_r+0x20>)
 800257c:	2300      	movs	r3, #0
 800257e:	4604      	mov	r4, r0
 8002580:	4608      	mov	r0, r1
 8002582:	4611      	mov	r1, r2
 8002584:	602b      	str	r3, [r5, #0]
 8002586:	f7fe f87b 	bl	8000680 <_fstat>
 800258a:	1c43      	adds	r3, r0, #1
 800258c:	d102      	bne.n	8002594 <_fstat_r+0x1c>
 800258e:	682b      	ldr	r3, [r5, #0]
 8002590:	b103      	cbz	r3, 8002594 <_fstat_r+0x1c>
 8002592:	6023      	str	r3, [r4, #0]
 8002594:	bd38      	pop	{r3, r4, r5, pc}
 8002596:	bf00      	nop
 8002598:	20000240 	.word	0x20000240

0800259c <_free_r>:
 800259c:	b538      	push	{r3, r4, r5, lr}
 800259e:	4605      	mov	r5, r0
 80025a0:	2900      	cmp	r1, #0
 80025a2:	d041      	beq.n	8002628 <_free_r+0x8c>
 80025a4:	f851 3c04 	ldr.w	r3, [r1, #-4]
 80025a8:	1f0c      	subs	r4, r1, #4
 80025aa:	2b00      	cmp	r3, #0
 80025ac:	bfb8      	it	lt
 80025ae:	18e4      	addlt	r4, r4, r3
 80025b0:	f7ff fe36 	bl	8002220 <__malloc_lock>
 80025b4:	4a1d      	ldr	r2, [pc, #116]	@ (800262c <_free_r+0x90>)
 80025b6:	6813      	ldr	r3, [r2, #0]
 80025b8:	b933      	cbnz	r3, 80025c8 <_free_r+0x2c>
 80025ba:	6063      	str	r3, [r4, #4]
 80025bc:	6014      	str	r4, [r2, #0]
 80025be:	4628      	mov	r0, r5
 80025c0:	e8bd 4038 	ldmia.w	sp!, {r3, r4, r5, lr}
 80025c4:	f7ff be32 	b.w	800222c <__malloc_unlock>
 80025c8:	42a3      	cmp	r3, r4
 80025ca:	d908      	bls.n	80025de <_free_r+0x42>
 80025cc:	6820      	ldr	r0, [r4, #0]
 80025ce:	1821      	adds	r1, r4, r0
 80025d0:	428b      	cmp	r3, r1
 80025d2:	bf01      	itttt	eq
 80025d4:	6819      	ldreq	r1, [r3, #0]
 80025d6:	685b      	ldreq	r3, [r3, #4]
 80025d8:	1809      	addeq	r1, r1, r0
 80025da:	6021      	streq	r1, [r4, #0]
 80025dc:	e7ed      	b.n	80025ba <_free_r+0x1e>
 80025de:	461a      	mov	r2, r3
 80025e0:	685b      	ldr	r3, [r3, #4]
 80025e2:	b10b      	cbz	r3, 80025e8 <_free_r+0x4c>
 80025e4:	42a3      	cmp	r3, r4
 80025e6:	d9fa      	bls.n	80025de <_free_r+0x42>
 80025e8:	6811      	ldr	r1, [r2, #0]
 80025ea:	1850      	adds	r0, r2, r1
 80025ec:	42a0      	cmp	r0, r4
 80025ee:	d10b      	bne.n	8002608 <_free_r+0x6c>
 80025f0:	6820      	ldr	r0, [r4, #0]
 80025f2:	4401      	add	r1, r0
 80025f4:	1850      	adds	r0, r2, r1
 80025f6:	4283      	cmp	r3, r0
 80025f8:	6011      	str	r1, [r2, #0]
 80025fa:	d1e0      	bne.n	80025be <_free_r+0x22>
 80025fc:	6818      	ldr	r0, [r3, #0]
 80025fe:	685b      	ldr	r3, [r3, #4]
 8002600:	6053      	str	r3, [r2, #4]
 8002602:	4408      	add	r0, r1
 8002604:	6010      	str	r0, [r2, #0]
 8002606:	e7da      	b.n	80025be <_free_r+0x22>
 8002608:	d902      	bls.n	8002610 <_free_r+0x74>
 800260a:	230c      	movs	r3, #12
 800260c:	602b      	str	r3, [r5, #0]
 800260e:	e7d6      	b.n	80025be <_free_r+0x22>
 8002610:	6820      	ldr	r0, [r4, #0]
 8002612:	1821      	adds	r1, r4, r0
 8002614:	428b      	cmp	r3, r1
 8002616:	bf04      	itt	eq
 8002618:	6819      	ldreq	r1, [r3, #0]
 800261a:	685b      	ldreq	r3, [r3, #4]
 800261c:	6063      	str	r3, [r4, #4]
 800261e:	bf04      	itt	eq
 8002620:	1809      	addeq	r1, r1, r0
 8002622:	6021      	streq	r1, [r4, #0]
 8002624:	6054      	str	r4, [r2, #4]
 8002626:	e7ca      	b.n	80025be <_free_r+0x22>
 8002628:	bd38      	pop	{r3, r4, r5, pc}
 800262a:	bf00      	nop
 800262c:	2000023c 	.word	0x2000023c

08002630 <_init>:
 8002630:	b5f8      	push	{r3, r4, r5, r6, r7, lr}
 8002632:	bf00      	nop
 8002634:	bcf8      	pop	{r3, r4, r5, r6, r7}
 8002636:	bc08      	pop	{r3}
 8002638:	469e      	mov	lr, r3
 800263a:	4770      	bx	lr

0800263c <_fini>:
 800263c:	b5f8      	push	{r3, r4, r5, r6, r7, lr}
 800263e:	bf00      	nop
 8002640:	bcf8      	pop	{r3, r4, r5, r6, r7}
 8002642:	bc08      	pop	{r3}
 8002644:	469e      	mov	lr, r3
 8002646:	4770      	bx	lr
